(dp0
S'dDocent_Contig_6256_15'
p1
(dp2
F120.0
S'great'
p3
sF100.0
S'scalloped/carolina'
p4
ssS'dDocent_Contig_21388_22'
p5
(dp6
F130.0
g3
sF110.0
g4
ssS'dDocent_Contig_1593_28'
p7
(dp8
F130.0
g4
sF110.0
g3
ssS'dDocent_Contig_71153_32'
p9
(dp10
F100.0
g4
sF110.0
g3
ssS'dDocent_Contig_4583_133'
p11
(dp12
F120.0
g3
sF100.0
g4
ssS'dDocent_Contig_17674_58'
p13
(dp14
F130.0
g3
sF110.0
g4
ssS'dDocent_Contig_10952_37'
p15
(dp16
F100.0
g3
sF110.0
g4
ssS'dDocent_Contig_71465_27'
p17
(dp18
F120.0
g3
sF100.0
g4
ssS'dDocent_Contig_9910_28'
p19
(dp20
F130.0
g3
sF110.0
g4
ssS'dDocent_Contig_61719_124'
p21
(dp22
F130.0
g3
sF110.0
g4
ssS'dDocent_Contig_35173_8'
p23
(dp24
F130.0
g4
sF100.0
g3
ssS'dDocent_Contig_56667_102'
p25
(dp26
F120.0
g3
sF100.0
g4
ssS'dDocent_Contig_19863_11'
p27
(dp28
F100.0
g4
sF110.0
g3
ssS'dDocent_Contig_17739_51'
p29
(dp30
F130.0
g3
sF110.0
g4
ssS'dDocent_Contig_45045_13'
p31
(dp32
F120.0
g3
sF130.0
g4
ssS'dDocent_Contig_11113_32'
p33
(dp34
F120.0
g3
sF100.0
g4
ssS'dDocent_Contig_3540_43'
p35
(dp36
F120.0
g4
sF100.0
g3
ssS'dDocent_Contig_52959_24'
p37
(dp38
F120.0
g3
sF100.0
g4
ssS'dDocent_Contig_8247_38'
p39
(dp40
F120.0
g3
sF100.0
g4
ssS'dDocent_Contig_69840_11'
p41
(dp42
F120.0
g4
sF100.0
g3
ssS'dDocent_Contig_55362_119'
p43
(dp44
F120.0
g4
sF100.0
g3
ssS'dDocent_Contig_34374_64'
p45
(dp46
F120.0
g3
sF100.0
g4
ssS'dDocent_Contig_40947_33'
p47
(dp48
F130.0
g3
sF110.0
g4
ssS'dDocent_Contig_734_79'
p49
(dp50
F120.0
g3
sF100.0
g4
ssS'dDocent_Contig_10258_12'
p51
(dp52
F120.0
g3
sF130.0
g4
ssS'dDocent_Contig_12329_49'
p53
(dp54
F120.0
g3
sF100.0
g4
ssS'dDocent_Contig_6056_47'
p55
(dp56
F100.0
g4
sF110.0
g3
ssS'dDocent_Contig_22340_14'
p57
(dp58
F120.0
g3
sF100.0
g4
ssS'dDocent_Contig_40155_33'
p59
(dp60
F120.0
g3
sF100.0
g4
ssS'dDocent_Contig_4301_122'
p61
(dp62
F120.0
g3
sF130.0
g4
ssS'dDocent_Contig_58756_53'
p63
(dp64
F100.0
g4
sF110.0
g3
ssS'dDocent_Contig_32003_33'
p65
(dp66
F120.0
g3
sF100.0
g4
ssS'dDocent_Contig_44883_98'
p67
(dp68
F120.0
g4
sF100.0
g3
ssS'dDocent_Contig_13465_66'
p69
(dp70
F130.0
g3
sF110.0
g4
ssS'dDocent_Contig_89759_33'
p71
(dp72
F130.0
g3
sF110.0
g4
ssS'dDocent_Contig_566_59'
p73
(dp74
F120.0
g4
sF100.0
g3
ssS'dDocent_Contig_10911_107'
p75
(dp76
F130.0
g4
sF110.0
g3
ssS'dDocent_Contig_8709_23'
p77
(dp78
F130.0
g4
sF110.0
g3
ssS'dDocent_Contig_72506_103'
p79
(dp80
F130.0
g3
sF110.0
g4
ssS'dDocent_Contig_12524_40'
p81
(dp82
F120.0
g4
sF100.0
g3
ssS'dDocent_Contig_45419_66'
p83
(dp84
F100.0
g3
sF110.0
g4
ssS'dDocent_Contig_21872_17'
p85
(dp86
F130.0
g4
sF110.0
g3
ssS'dDocent_Contig_46746_17'
p87
(dp88
F130.0
g4
sF100.0
g3
ssS'dDocent_Contig_41955_36'
p89
(dp90
F130.0
g4
sF100.0
g3
ssS'dDocent_Contig_162_17'
p91
(dp92
F130.0
g4
sF110.0
g3
ssS'dDocent_Contig_6717_10'
p93
(dp94
F120.0
g4
sF100.0
g3
ssS'dDocent_Contig_35476_107'
p95
(dp96
F120.0
g4
sF100.0
g3
ssS'dDocent_Contig_48369_85'
p97
(dp98
F120.0
g3
sF100.0
g4
ssS'dDocent_Contig_38952_25'
p99
(dp100
F130.0
g3
sF110.0
g4
ssS'dDocent_Contig_93610_32'
p101
(dp102
F100.0
g3
sF110.0
g4
ssS'dDocent_Contig_1057_7'
p103
(dp104
F120.0
g3
sF100.0
g4
ssS'dDocent_Contig_47899_13'
p105
(dp106
F120.0
g4
sF100.0
g3
ssS'dDocent_Contig_27850_65'
p107
(dp108
F120.0
g3
sF100.0
g4
ssS'dDocent_Contig_10205_26'
p109
(dp110
F120.0
g3
sF110.0
g4
ssS'dDocent_Contig_13132_43'
p111
(dp112
F120.0
g3
sF100.0
g4
ssS'dDocent_Contig_54650_14'
p113
(dp114
F120.0
g4
sF100.0
g3
ssS'dDocent_Contig_5490_60'
p115
(dp116
F120.0
g3
sF100.0
g4
ssS'dDocent_Contig_85549_8'
p117
(dp118
F120.0
g3
sF100.0
g4
ssS'dDocent_Contig_84018_8'
p119
(dp120
F130.0
g4
sF110.0
g3
ssS'dDocent_Contig_30042_17'
p121
(dp122
F130.0
g3
sF110.0
g4
ssS'dDocent_Contig_8859_17'
p123
(dp124
F130.0
g3
sF100.0
g4
ssS'dDocent_Contig_32503_53'
p125
(dp126
F130.0
g3
sF110.0
g4
ssS'dDocent_Contig_75027_67'
p127
(dp128
F130.0
g3
sF110.0
g4
ssS'dDocent_Contig_59631_44'
p129
(dp130
F120.0
g4
sF100.0
g3
ssS'dDocent_Contig_12255_124'
p131
(dp132
F120.0
g3
sF100.0
g4
ssS'dDocent_Contig_6252_10'
p133
(dp134
F130.0
g3
sF110.0
g4
ssS'dDocent_Contig_80229_10'
p135
(dp136
F130.0
g3
sF110.0
g4
ssS'dDocent_Contig_6935_33'
p137
(dp138
F120.0
g4
sF100.0
g3
ssS'dDocent_Contig_2419_16'
p139
(dp140
F120.0
g3
sF100.0
g4
ssS'dDocent_Contig_31800_24'
p141
(dp142
F130.0
g4
sF110.0
g3
ssS'dDocent_Contig_37454_7'
p143
(dp144
F130.0
g4
sF110.0
g3
ssS'dDocent_Contig_2031_37'
p145
(dp146
F120.0
g4
sF100.0
g3
ssS'dDocent_Contig_6442_61'
p147
(dp148
F120.0
g3
sF100.0
g4
ssS'dDocent_Contig_18250_107'
p149
(dp150
F120.0
g3
sF100.0
g4
ssS'dDocent_Contig_25490_15'
p151
(dp152
F130.0
g3
sF110.0
g4
ssS'dDocent_Contig_25286_7'
p153
(dp154
F130.0
g3
sF110.0
g4
ssS'dDocent_Contig_25957_78'
p155
(dp156
F120.0
g3
sF100.0
g4
ssS'dDocent_Contig_78747_17'
p157
(dp158
F120.0
g3
sF100.0
g4
ssS'dDocent_Contig_14668_31'
p159
(dp160
F130.0
g3
sF110.0
g4
ssS'dDocent_Contig_2515_42'
p161
(dp162
F120.0
g3
sF100.0
g4
ssS'dDocent_Contig_23065_44'
p163
(dp164
F130.0
g4
sF110.0
g3
ssS'dDocent_Contig_27317_19'
p165
(dp166
F130.0
g3
sF110.0
g4
ssS'dDocent_Contig_39438_73'
p167
(dp168
F120.0
g3
sF100.0
g4
ssS'dDocent_Contig_93827_57'
p169
(dp170
F120.0
g3
sF100.0
g4
ssS'dDocent_Contig_14686_12'
p171
(dp172
F100.0
g4
sF110.0
g3
ssS'dDocent_Contig_24957_38'
p173
(dp174
F120.0
g3
sF100.0
g4
ssS'dDocent_Contig_6672_56'
p175
(dp176
F120.0
g3
sF100.0
g4
ssS'dDocent_Contig_14811_46'
p177
(dp178
F120.0
g4
sF130.0
g3
ssS'dDocent_Contig_3218_11'
p179
(dp180
F120.0
g4
sF130.0
g3
ssS'dDocent_Contig_4127_61'
p181
(dp182
F120.0
g3
sF100.0
g4
ssS'dDocent_Contig_26109_46'
p183
(dp184
F130.0
g3
sF110.0
g4
ssS'dDocent_Contig_70431_33'
p185
(dp186
F130.0
g3
sF110.0
g4
ssS'dDocent_Contig_12159_8'
p187
(dp188
F120.0
g3
sF100.0
g4
ssS'dDocent_Contig_22456_18'
p189
(dp190
F130.0
g4
sF110.0
g3
ssS'dDocent_Contig_82991_10'
p191
(dp192
F130.0
g3
sF110.0
g4
ssS'dDocent_Contig_13076_13'
p193
(dp194
F130.0
g3
sF110.0
g4
ssS'dDocent_Contig_53672_18'
p195
(dp196
F120.0
g4
sF100.0
g3
ssS'dDocent_Contig_4593_135'
p197
(dp198
F130.0
g3
sF110.0
g4
ssS'dDocent_Contig_59674_47'
p199
(dp200
F120.0
g3
sF100.0
g4
ssS'dDocent_Contig_17027_42'
p201
(dp202
F120.0
g3
sF100.0
g4
ssS'dDocent_Contig_22837_24'
p203
(dp204
F120.0
g3
sF100.0
g4
ssS'dDocent_Contig_78997_89'
p205
(dp206
F120.0
g3
sF110.0
g4
ssS'dDocent_Contig_1065_40'
p207
(dp208
F120.0
g3
sF100.0
g4
ssS'dDocent_Contig_68790_134'
p209
(dp210
F130.0
g4
sF100.0
g3
ssS'dDocent_Contig_51826_20'
p211
(dp212
F130.0
g4
sF110.0
g3
ssS'dDocent_Contig_16395_16'
p213
(dp214
F120.0
g4
sF100.0
g3
ssS'dDocent_Contig_35551_31'
p215
(dp216
F120.0
g3
sF100.0
g4
ssS'dDocent_Contig_61273_63'
p217
(dp218
F130.0
g3
sF100.0
g4
ssS'dDocent_Contig_31915_19'
p219
(dp220
F120.0
g3
sF100.0
g4
ssS'dDocent_Contig_13049_12'
p221
(dp222
F130.0
g3
sF110.0
g4
ssS'dDocent_Contig_23055_97'
p223
(dp224
F120.0
g3
sF100.0
g4
ssS'dDocent_Contig_55696_73'
p225
(dp226
F120.0
g4
sF100.0
g3
ssS'dDocent_Contig_87548_31'
p227
(dp228
F130.0
g3
sF110.0
g4
ssS'dDocent_Contig_38183_48'
p229
(dp230
F130.0
g3
sF110.0
g4
ssS'dDocent_Contig_54623_25'
p231
(dp232
F120.0
g3
sF100.0
g4
ssS'dDocent_Contig_29015_42'
p233
(dp234
F120.0
g4
sF110.0
g3
ssS'dDocent_Contig_19480_13'
p235
(dp236
F120.0
g4
sF100.0
g3
ssS'dDocent_Contig_72065_91'
p237
(dp238
F130.0
g3
sF110.0
g4
ssS'dDocent_Contig_81811_30'
p239
(dp240
F120.0
g4
sF100.0
g3
ssS'dDocent_Contig_31597_55'
p241
(dp242
F120.0
g3
sF110.0
g4
ssS'dDocent_Contig_20926_55'
p243
(dp244
F120.0
g4
sF100.0
g3
ssS'dDocent_Contig_43150_47'
p245
(dp246
F130.0
g4
sF110.0
g3
ssS'dDocent_Contig_23898_17'
p247
(dp248
F120.0
g3
sF130.0
g4
ssS'dDocent_Contig_808_44'
p249
(dp250
F130.0
g3
sF110.0
g4
ssS'dDocent_Contig_25201_58'
p251
(dp252
F100.0
g4
sF110.0
g3
ssS'dDocent_Contig_42220_52'
p253
(dp254
F120.0
g3
sF100.0
g4
ssS'dDocent_Contig_75187_75'
p255
(dp256
F120.0
g3
sF100.0
g4
ssS'dDocent_Contig_11728_20'
p257
(dp258
F100.0
g3
sF110.0
g4
ssS'dDocent_Contig_81540_80'
p259
(dp260
F120.0
g4
sF100.0
g3
ssS'dDocent_Contig_7316_32'
p261
(dp262
F130.0
g4
sF110.0
g3
ssS'dDocent_Contig_65941_34'
p263
(dp264
F130.0
g4
sF110.0
g3
ssS'dDocent_Contig_2991_34'
p265
(dp266
F120.0
g4
sF110.0
g3
ssS'dDocent_Contig_5002_44'
p267
(dp268
F120.0
g3
sF110.0
g4
ssS'dDocent_Contig_20222_58'
p269
(dp270
F130.0
g3
sF110.0
g4
ssS'dDocent_Contig_52004_36'
p271
(dp272
F100.0
g4
sF110.0
g3
ssS'dDocent_Contig_14165_192'
p273
(dp274
F130.0
g4
sF110.0
g3
ssS'dDocent_Contig_16718_14'
p275
(dp276
F130.0
g4
sF110.0
g3
ssS'dDocent_Contig_24087_25'
p277
(dp278
F130.0
g4
sF110.0
g3
ssS'dDocent_Contig_54392_151'
p279
(dp280
F120.0
g3
sF100.0
g4
ssS'dDocent_Contig_22680_9'
p281
(dp282
F130.0
g3
sF110.0
g4
ssS'dDocent_Contig_60452_81'
p283
(dp284
F120.0
g3
sF100.0
g4
ssS'dDocent_Contig_5849_13'
p285
(dp286
F130.0
g3
sF110.0
g4
ssS'dDocent_Contig_3272_72'
p287
(dp288
F100.0
g3
sF110.0
g4
ssS'dDocent_Contig_27942_64'
p289
(dp290
F130.0
g3
sF110.0
g4
ssS'dDocent_Contig_35955_42'
p291
(dp292
F120.0
g4
sF100.0
g3
ssS'dDocent_Contig_27935_83'
p293
(dp294
F120.0
g4
sF100.0
g3
ssS'dDocent_Contig_37823_12'
p295
(dp296
F120.0
g3
sF100.0
g4
ssS'dDocent_Contig_65303_7'
p297
(dp298
F130.0
g3
sF110.0
g4
ssS'dDocent_Contig_77785_77'
p299
(dp300
F100.0
g3
sF110.0
g4
ssS'dDocent_Contig_10590_24'
p301
(dp302
F120.0
g3
sF100.0
g4
ssS'dDocent_Contig_14014_31'
p303
(dp304
F100.0
g3
sF110.0
g4
ssS'dDocent_Contig_65004_29'
p305
(dp306
F130.0
g4
sF110.0
g3
ssS'dDocent_Contig_90443_165'
p307
(dp308
F130.0
g3
sF100.0
g4
ssS'dDocent_Contig_57475_51'
p309
(dp310
F120.0
g3
sF100.0
g4
ssS'dDocent_Contig_4147_33'
p311
(dp312
F120.0
g3
sF100.0
g4
ssS'dDocent_Contig_9872_40'
p313
(dp314
F130.0
g4
sF110.0
g3
ssS'dDocent_Contig_66722_13'
p315
(dp316
F130.0
g3
sF110.0
g4
ssS'dDocent_Contig_72110_11'
p317
(dp318
F130.0
g4
sF100.0
g3
ssS'dDocent_Contig_944_17'
p319
(dp320
F120.0
g4
sF100.0
g3
ssS'dDocent_Contig_62175_30'
p321
(dp322
F130.0
g3
sF110.0
g4
ssS'dDocent_Contig_5899_48'
p323
(dp324
F120.0
g4
sF110.0
g3
ssS'dDocent_Contig_27738_10'
p325
(dp326
F120.0
g4
sF100.0
g3
ssS'dDocent_Contig_5544_8'
p327
(dp328
F130.0
g4
sF110.0
g3
ssS'dDocent_Contig_1255_7'
p329
(dp330
F130.0
g4
sF110.0
g3
ssS'dDocent_Contig_5091_20'
p331
(dp332
F120.0
g3
sF100.0
g4
ssS'dDocent_Contig_60261_46'
p333
(dp334
F120.0
g3
sF110.0
g4
ssS'dDocent_Contig_72756_48'
p335
(dp336
F130.0
g3
sF110.0
g4
ssS'dDocent_Contig_53595_27'
p337
(dp338
F120.0
g3
sF100.0
g4
ssS'dDocent_Contig_51065_26'
p339
(dp340
F120.0
g4
sF100.0
g3
ssS'dDocent_Contig_21808_17'
p341
(dp342
F120.0
g3
sF100.0
g4
ssS'dDocent_Contig_86666_7'
p343
(dp344
F130.0
g3
sF110.0
g4
ssS'dDocent_Contig_15910_10'
p345
(dp346
F130.0
g3
sF110.0
g4
ssS'dDocent_Contig_15941_44'
p347
(dp348
F120.0
g3
sF100.0
g4
ssS'dDocent_Contig_20977_103'
p349
(dp350
F130.0
g4
sF110.0
g3
ssS'dDocent_Contig_36059_10'
p351
(dp352
F130.0
g4
sF110.0
g3
ssS'dDocent_Contig_15169_22'
p353
(dp354
F130.0
g3
sF110.0
g4
ssS'dDocent_Contig_56762_32'
p355
(dp356
F130.0
g3
sF110.0
g4
ssS'dDocent_Contig_35071_126'
p357
(dp358
F120.0
g3
sF100.0
g4
ssS'dDocent_Contig_69597_65'
p359
(dp360
F120.0
g3
sF100.0
g4
ssS'dDocent_Contig_50905_10'
p361
(dp362
F120.0
g4
sF100.0
g3
ssS'dDocent_Contig_13504_26'
p363
(dp364
F120.0
g4
sF100.0
g3
ssS'dDocent_Contig_57581_91'
p365
(dp366
F130.0
g4
sF110.0
g3
ssS'dDocent_Contig_222_22'
p367
(dp368
F130.0
g3
sF100.0
g4
ssS'dDocent_Contig_1011_12'
p369
(dp370
F130.0
g3
sF110.0
g4
ssS'dDocent_Contig_53985_26'
p371
(dp372
F130.0
g4
sF110.0
g3
ssS'dDocent_Contig_21423_123'
p373
(dp374
F120.0
g4
sF100.0
g3
ssS'dDocent_Contig_42635_26'
p375
(dp376
F120.0
g3
sF100.0
g4
ssS'dDocent_Contig_23538_65'
p377
(dp378
F120.0
g3
sF110.0
g4
ssS'dDocent_Contig_35137_8'
p379
(dp380
F120.0
g4
sF110.0
g3
ssS'dDocent_Contig_18724_95'
p381
(dp382
F130.0
g3
sF110.0
g4
ssS'dDocent_Contig_1797_8'
p383
(dp384
F130.0
g3
sF110.0
g4
ssS'dDocent_Contig_60241_81'
p385
(dp386
F120.0
g3
sF100.0
g4
ssS'dDocent_Contig_7916_114'
p387
(dp388
F130.0
g3
sF100.0
g4
ssS'dDocent_Contig_23043_50'
p389
(dp390
F130.0
g4
sF110.0
g3
ssS'dDocent_Contig_69670_9'
p391
(dp392
F100.0
g4
sF110.0
g3
ssS'dDocent_Contig_14479_38'
p393
(dp394
F120.0
g3
sF100.0
g4
ssS'dDocent_Contig_18701_74'
p395
(dp396
F130.0
g4
sF110.0
g3
ssS'dDocent_Contig_285_7'
p397
(dp398
F120.0
g3
sF100.0
g4
ssS'dDocent_Contig_10163_12'
p399
(dp400
F130.0
g4
sF110.0
g3
ssS'dDocent_Contig_33243_52'
p401
(dp402
F120.0
g3
sF100.0
g4
ssS'dDocent_Contig_49287_7'
p403
(dp404
F130.0
g3
sF110.0
g4
ssS'dDocent_Contig_78431_25'
p405
(dp406
F130.0
g4
sF110.0
g3
ssS'dDocent_Contig_17400_22'
p407
(dp408
F120.0
g4
sF100.0
g3
ssS'dDocent_Contig_79817_140'
p409
(dp410
F130.0
g4
sF110.0
g3
ssS'dDocent_Contig_71612_16'
p411
(dp412
F130.0
g3
sF110.0
g4
ssS'dDocent_Contig_4674_48'
p413
(dp414
F130.0
g4
sF110.0
g3
ssS'dDocent_Contig_82323_42'
p415
(dp416
F130.0
g3
sF110.0
g4
ssS'dDocent_Contig_14267_16'
p417
(dp418
F120.0
g3
sF130.0
g4
ssS'dDocent_Contig_62817_47'
p419
(dp420
F130.0
g3
sF110.0
g4
ssS'dDocent_Contig_6067_21'
p421
(dp422
F100.0
g4
sF110.0
g3
ssS'dDocent_Contig_5953_9'
p423
(dp424
F130.0
g3
sF110.0
g4
ssS'dDocent_Contig_9390_32'
p425
(dp426
F120.0
g4
sF100.0
g3
ssS'dDocent_Contig_44315_32'
p427
(dp428
F120.0
g4
sF100.0
g3
ssS'dDocent_Contig_78179_46'
p429
(dp430
F130.0
g3
sF110.0
g4
ssS'dDocent_Contig_1504_59'
p431
(dp432
F120.0
g3
sF100.0
g4
ssS'dDocent_Contig_19185_39'
p433
(dp434
F120.0
g3
sF100.0
g4
ssS'dDocent_Contig_10026_73'
p435
(dp436
F120.0
g4
sF100.0
g3
ssS'dDocent_Contig_52474_9'
p437
(dp438
F120.0
g4
sF130.0
g3
ssS'dDocent_Contig_21632_8'
p439
(dp440
F130.0
g4
sF110.0
g3
ssS'dDocent_Contig_42655_12'
p441
(dp442
F120.0
g3
sF100.0
g4
ssS'dDocent_Contig_259_22'
p443
(dp444
F130.0
g3
sF110.0
g4
ssS'dDocent_Contig_70205_132'
p445
(dp446
F130.0
g4
sF110.0
g3
ssS'dDocent_Contig_7862_124'
p447
(dp448
F100.0
g3
sF110.0
g4
ssS'dDocent_Contig_7695_24'
p449
(dp450
F130.0
g3
sF110.0
g4
ssS'dDocent_Contig_44922_77'
p451
(dp452
F120.0
g4
sF100.0
g3
ssS'dDocent_Contig_68405_35'
p453
(dp454
F130.0
g4
sF110.0
g3
ssS'dDocent_Contig_8387_17'
p455
(dp456
F130.0
g3
sF110.0
g4
ssS'dDocent_Contig_38874_56'
p457
(dp458
F120.0
g4
sF100.0
g3
ssS'dDocent_Contig_42533_9'
p459
(dp460
F130.0
g4
sF110.0
g3
ssS'dDocent_Contig_776_29'
p461
(dp462
F120.0
g3
sF100.0
g4
ssS'dDocent_Contig_4363_69'
p463
(dp464
F130.0
g3
sF110.0
g4
ssS'dDocent_Contig_41642_23'
p465
(dp466
F130.0
g4
sF110.0
g3
ssS'dDocent_Contig_42090_50'
p467
(dp468
F130.0
g4
sF110.0
g3
ssS'dDocent_Contig_55580_13'
p469
(dp470
F120.0
g4
sF100.0
g3
ssS'dDocent_Contig_12016_23'
p471
(dp472
F130.0
g4
sF110.0
g3
ssS'dDocent_Contig_54832_11'
p473
(dp474
F130.0
g3
sF100.0
g4
ssS'dDocent_Contig_22985_31'
p475
(dp476
F120.0
g4
sF100.0
g3
ssS'dDocent_Contig_6888_58'
p477
(dp478
F120.0
g3
sF130.0
g4
ssS'dDocent_Contig_63804_79'
p479
(dp480
F130.0
g3
sF110.0
g4
ssS'dDocent_Contig_4130_10'
p481
(dp482
F120.0
g4
sF100.0
g3
ssS'dDocent_Contig_44681_21'
p483
(dp484
F120.0
g3
sF100.0
g4
ssS'dDocent_Contig_63482_19'
p485
(dp486
F120.0
g4
sF100.0
g3
ssS'dDocent_Contig_41761_29'
p487
(dp488
F120.0
g4
sF100.0
g3
ssS'dDocent_Contig_86888_56'
p489
(dp490
F100.0
g4
sF110.0
g3
ssS'dDocent_Contig_67773_115'
p491
(dp492
F130.0
g3
sF110.0
g4
ssS'dDocent_Contig_4340_10'
p493
(dp494
F120.0
g4
sF100.0
g3
ssS'dDocent_Contig_58168_9'
p495
(dp496
F130.0
g4
sF100.0
g3
ssS'dDocent_Contig_20088_35'
p497
(dp498
F130.0
g3
sF110.0
g4
ssS'dDocent_Contig_87328_23'
p499
(dp500
F130.0
g4
sF100.0
g3
ssS'dDocent_Contig_70234_50'
p501
(dp502
F130.0
g4
sF110.0
g3
ssS'dDocent_Contig_48234_18'
p503
(dp504
F120.0
g3
sF100.0
g4
ssS'dDocent_Contig_73064_10'
p505
(dp506
F130.0
g4
sF110.0
g3
ssS'dDocent_Contig_42391_44'
p507
(dp508
F130.0
g3
sF110.0
g4
ssS'dDocent_Contig_56130_27'
p509
(dp510
F120.0
g4
sF100.0
g3
ssS'dDocent_Contig_27760_41'
p511
(dp512
F130.0
g3
sF110.0
g4
ssS'dDocent_Contig_50390_31'
p513
(dp514
F130.0
g3
sF110.0
g4
ssS'dDocent_Contig_44593_27'
p515
(dp516
F120.0
g3
sF100.0
g4
ssS'dDocent_Contig_62614_21'
p517
(dp518
F130.0
g3
sF110.0
g4
ssS'dDocent_Contig_9836_13'
p519
(dp520
F120.0
g3
sF100.0
g4
ssS'dDocent_Contig_67308_15'
p521
(dp522
F130.0
g4
sF110.0
g3
ssS'dDocent_Contig_21451_9'
p523
(dp524
F120.0
g3
sF100.0
g4
ssS'dDocent_Contig_73050_92'
p525
(dp526
F100.0
g4
sF110.0
g3
ssS'dDocent_Contig_16647_9'
p527
(dp528
F100.0
g4
sF110.0
g3
ssS'dDocent_Contig_15887_19'
p529
(dp530
F120.0
g3
sF100.0
g4
ssS'dDocent_Contig_30629_8'
p531
(dp532
F120.0
g3
sF100.0
g4
ssS'dDocent_Contig_16428_19'
p533
(dp534
F120.0
g3
sF100.0
g4
ssS'dDocent_Contig_13999_49'
p535
(dp536
F120.0
g4
sF100.0
g3
ssS'dDocent_Contig_9709_24'
p537
(dp538
F120.0
g4
sF100.0
g3
ssS'dDocent_Contig_56055_24'
p539
(dp540
F120.0
g4
sF110.0
g3
ssS'dDocent_Contig_81873_117'
p541
(dp542
F130.0
g4
sF100.0
g3
ssS'dDocent_Contig_7967_80'
p543
(dp544
F130.0
g4
sF110.0
g3
ssS'dDocent_Contig_9942_39'
p545
(dp546
F130.0
g3
sF110.0
g4
ssS'dDocent_Contig_10145_26'
p547
(dp548
F130.0
g3
sF110.0
g4
ssS'dDocent_Contig_80526_55'
p549
(dp550
F120.0
g3
sF100.0
g4
ssS'dDocent_Contig_67841_110'
p551
(dp552
F120.0
g3
sF130.0
g4
ssS'dDocent_Contig_13864_12'
p553
(dp554
F120.0
g3
sF100.0
g4
ssS'dDocent_Contig_18658_89'
p555
(dp556
F120.0
g3
sF100.0
g4
ssS'dDocent_Contig_484_29'
p557
(dp558
F120.0
g4
sF100.0
g3
ssS'dDocent_Contig_65725_13'
p559
(dp560
F120.0
g4
sF100.0
g3
ssS'dDocent_Contig_45736_26'
p561
(dp562
F120.0
g4
sF100.0
g3
ssS'dDocent_Contig_18577_10'
p563
(dp564
F100.0
g3
sF110.0
g4
ssS'dDocent_Contig_57562_60'
p565
(dp566
F120.0
g3
sF100.0
g4
ssS'dDocent_Contig_41678_44'
p567
(dp568
F130.0
g3
sF110.0
g4
ssS'dDocent_Contig_7690_168'
p569
(dp570
F120.0
g4
sF100.0
g3
ssS'dDocent_Contig_23691_11'
p571
(dp572
F130.0
g4
sF110.0
g3
ssS'dDocent_Contig_20708_16'
p573
(dp574
F120.0
g3
sF130.0
g4
ssS'dDocent_Contig_32265_89'
p575
(dp576
F130.0
g4
sF110.0
g3
ssS'dDocent_Contig_7436_8'
p577
(dp578
F120.0
g4
sF100.0
g3
ssS'dDocent_Contig_20730_72'
p579
(dp580
F120.0
g4
sF100.0
g3
ssS'dDocent_Contig_93546_9'
p581
(dp582
F120.0
g3
sF130.0
g4
ssS'dDocent_Contig_93201_21'
p583
(dp584
F130.0
g3
sF110.0
g4
ssS'dDocent_Contig_998_54'
p585
(dp586
F100.0
g4
sF110.0
g3
ssS'dDocent_Contig_14555_68'
p587
(dp588
F120.0
g3
sF130.0
g4
ssS'dDocent_Contig_74801_29'
p589
(dp590
F120.0
g4
sF100.0
g3
ssS'dDocent_Contig_40509_53'
p591
(dp592
F120.0
g4
sF100.0
g3
ssS'dDocent_Contig_81469_10'
p593
(dp594
F100.0
g4
sF110.0
g3
ssS'dDocent_Contig_15491_19'
p595
(dp596
F120.0
g3
sF100.0
g4
ssS'dDocent_Contig_1189_127'
p597
(dp598
F130.0
g4
sF110.0
g3
ssS'dDocent_Contig_13164_20'
p599
(dp600
F130.0
g4
sF110.0
g3
ssS'dDocent_Contig_733_12'
p601
(dp602
F130.0
g4
sF110.0
g3
ssS'dDocent_Contig_59817_10'
p603
(dp604
F130.0
g3
sF110.0
g4
ssS'dDocent_Contig_4117_13'
p605
(dp606
F120.0
g3
sF110.0
g4
ssS'dDocent_Contig_46317_26'
p607
(dp608
F120.0
g3
sF100.0
g4
ssS'dDocent_Contig_11687_13'
p609
(dp610
F100.0
g4
sF110.0
g3
ssS'dDocent_Contig_19546_116'
p611
(dp612
F130.0
g3
sF110.0
g4
ssS'dDocent_Contig_11749_32'
p613
(dp614
F120.0
g3
sF100.0
g4
ssS'dDocent_Contig_6356_45'
p615
(dp616
F130.0
g4
sF110.0
g3
ssS'dDocent_Contig_25455_41'
p617
(dp618
F120.0
g3
sF110.0
g4
ssS'dDocent_Contig_2186_12'
p619
(dp620
F120.0
g3
sF100.0
g4
ssS'dDocent_Contig_5911_8'
p621
(dp622
F130.0
g4
sF110.0
g3
ssS'dDocent_Contig_1282_27'
p623
(dp624
F130.0
g3
sF110.0
g4
ssS'dDocent_Contig_5510_52'
p625
(dp626
F130.0
g3
sF110.0
g4
ssS'dDocent_Contig_70653_8'
p627
(dp628
F120.0
g4
sF100.0
g3
ssS'dDocent_Contig_4969_168'
p629
(dp630
F130.0
g3
sF110.0
g4
ssS'dDocent_Contig_4110_57'
p631
(dp632
F120.0
g4
sF100.0
g3
ssS'dDocent_Contig_20504_31'
p633
(dp634
F130.0
g3
sF110.0
g4
ssS'dDocent_Contig_25651_32'
p635
(dp636
F130.0
g4
sF110.0
g3
ssS'dDocent_Contig_93781_87'
p637
(dp638
F120.0
g4
sF100.0
g3
ssS'dDocent_Contig_3581_26'
p639
(dp640
F120.0
g3
sF100.0
g4
ssS'dDocent_Contig_31760_9'
p641
(dp642
F130.0
g4
sF110.0
g3
ssS'dDocent_Contig_58238_135'
p643
(dp644
F120.0
g4
sF100.0
g3
ssS'dDocent_Contig_8916_20'
p645
(dp646
F120.0
g4
sF100.0
g3
ssS'dDocent_Contig_21348_40'
p647
(dp648
F130.0
g3
sF110.0
g4
ssS'dDocent_Contig_12114_8'
p649
(dp650
F120.0
g3
sF100.0
g4
ssS'dDocent_Contig_26465_57'
p651
(dp652
F130.0
g4
sF110.0
g3
ssS'dDocent_Contig_12122_30'
p653
(dp654
F100.0
g3
sF110.0
g4
ssS'dDocent_Contig_38193_14'
p655
(dp656
F130.0
g3
sF110.0
g4
ssS'dDocent_Contig_59530_52'
p657
(dp658
F120.0
g3
sF100.0
g4
ssS'dDocent_Contig_8130_27'
p659
(dp660
F120.0
g4
sF110.0
g3
ssS'dDocent_Contig_18452_84'
p661
(dp662
F120.0
g3
sF100.0
g4
ssS'dDocent_Contig_12966_40'
p663
(dp664
F130.0
g4
sF100.0
g3
ssS'dDocent_Contig_77842_54'
p665
(dp666
F130.0
g4
sF110.0
g3
ssS'dDocent_Contig_25450_8'
p667
(dp668
F120.0
g3
sF100.0
g4
ssS'dDocent_Contig_60149_37'
p669
(dp670
F120.0
g3
sF100.0
g4
ssS'dDocent_Contig_25652_67'
p671
(dp672
F120.0
g4
sF130.0
g3
ssS'dDocent_Contig_55372_83'
p673
(dp674
F130.0
g4
sF110.0
g3
ssS'dDocent_Contig_35015_19'
p675
(dp676
F130.0
g3
sF110.0
g4
ssS'dDocent_Contig_49254_183'
p677
(dp678
F130.0
g3
sF110.0
g4
ssS'dDocent_Contig_30239_22'
p679
(dp680
F120.0
g4
sF100.0
g3
ssS'dDocent_Contig_1581_12'
p681
(dp682
F130.0
g4
sF110.0
g3
ssS'dDocent_Contig_10984_12'
p683
(dp684
F130.0
g3
sF110.0
g4
ssS'dDocent_Contig_47180_22'
p685
(dp686
F130.0
g3
sF110.0
g4
ssS'dDocent_Contig_59946_177'
p687
(dp688
F130.0
g4
sF110.0
g3
ssS'dDocent_Contig_41565_208'
p689
(dp690
F130.0
g3
sF110.0
g4
ssS'dDocent_Contig_8595_40'
p691
(dp692
F120.0
g3
sF100.0
g4
ssS'dDocent_Contig_32865_30'
p693
(dp694
F130.0
g3
sF110.0
g4
ssS'dDocent_Contig_12461_17'
p695
(dp696
F100.0
g3
sF110.0
g4
ssS'dDocent_Contig_87371_103'
p697
(dp698
F120.0
g3
sF100.0
g4
ssS'dDocent_Contig_14316_48'
p699
(dp700
F120.0
g4
sF100.0
g3
ssS'dDocent_Contig_62916_25'
p701
(dp702
F130.0
g4
sF110.0
g3
ssS'dDocent_Contig_6585_7'
p703
(dp704
F130.0
g3
sF110.0
g4
ssS'dDocent_Contig_32217_26'
p705
(dp706
F120.0
g4
sF100.0
g3
ssS'dDocent_Contig_88230_234'
p707
(dp708
F120.0
g3
sF100.0
g4
ssS'dDocent_Contig_39956_40'
p709
(dp710
F100.0
g3
sF110.0
g4
ssS'dDocent_Contig_33602_21'
p711
(dp712
F130.0
g3
sF110.0
g4
ssS'dDocent_Contig_7165_10'
p713
(dp714
F130.0
g3
sF110.0
g4
ssS'dDocent_Contig_32873_22'
p715
(dp716
F130.0
g4
sF110.0
g3
ssS'dDocent_Contig_87540_70'
p717
(dp718
F130.0
g4
sF110.0
g3
ssS'dDocent_Contig_23837_116'
p719
(dp720
F130.0
g3
sF100.0
g4
ssS'dDocent_Contig_62129_19'
p721
(dp722
F100.0
g3
sF110.0
g4
ssS'dDocent_Contig_43636_48'
p723
(dp724
F120.0
g3
sF100.0
g4
ssS'dDocent_Contig_76155_22'
p725
(dp726
F130.0
g4
sF110.0
g3
ssS'dDocent_Contig_18999_30'
p727
(dp728
F130.0
g4
sF110.0
g3
ssS'dDocent_Contig_2660_25'
p729
(dp730
F120.0
g3
sF100.0
g4
ssS'dDocent_Contig_4769_24'
p731
(dp732
F130.0
g3
sF100.0
g4
ssS'dDocent_Contig_8906_23'
p733
(dp734
F120.0
g3
sF130.0
g4
ssS'dDocent_Contig_15939_50'
p735
(dp736
F130.0
g3
sF110.0
g4
ssS'dDocent_Contig_16224_10'
p737
(dp738
F120.0
g3
sF100.0
g4
ssS'dDocent_Contig_17384_9'
p739
(dp740
F130.0
g4
sF110.0
g3
ssS'dDocent_Contig_45620_10'
p741
(dp742
F130.0
g4
sF110.0
g3
ssS'dDocent_Contig_43017_10'
p743
(dp744
F120.0
g4
sF100.0
g3
ssS'dDocent_Contig_632_10'
p745
(dp746
F120.0
g4
sF100.0
g3
ssS'dDocent_Contig_18059_26'
p747
(dp748
F120.0
g4
sF100.0
g3
ssS'dDocent_Contig_15074_30'
p749
(dp750
F130.0
g3
sF110.0
g4
ssS'dDocent_Contig_18132_67'
p751
(dp752
F120.0
g3
sF100.0
g4
ssS'dDocent_Contig_31607_80'
p753
(dp754
F120.0
g4
sF130.0
g3
ssS'dDocent_Contig_21561_27'
p755
(dp756
F120.0
g4
sF100.0
g3
ssS'dDocent_Contig_18488_19'
p757
(dp758
F130.0
g4
sF100.0
g3
ssS'dDocent_Contig_27979_11'
p759
(dp760
F100.0
g4
sF110.0
g3
ssS'dDocent_Contig_20203_18'
p761
(dp762
F120.0
g3
sF100.0
g4
ssS'dDocent_Contig_60100_103'
p763
(dp764
F120.0
g4
sF100.0
g3
ssS'dDocent_Contig_11762_73'
p765
(dp766
F120.0
g3
sF130.0
g4
ssS'dDocent_Contig_52841_14'
p767
(dp768
F130.0
g4
sF110.0
g3
ssS'dDocent_Contig_27260_38'
p769
(dp770
F130.0
g4
sF110.0
g3
ssS'dDocent_Contig_92730_34'
p771
(dp772
F120.0
g3
sF100.0
g4
ssS'dDocent_Contig_23669_21'
p773
(dp774
F130.0
g3
sF100.0
g4
ssS'dDocent_Contig_1886_21'
p775
(dp776
F100.0
g4
sF110.0
g3
ssS'dDocent_Contig_46755_298'
p777
(dp778
F100.0
g4
sF110.0
g3
ssS'dDocent_Contig_14762_15'
p779
(dp780
F100.0
g3
sF110.0
g4
ssS'dDocent_Contig_88687_7'
p781
(dp782
F120.0
g4
sF100.0
g3
ssS'dDocent_Contig_65363_70'
p783
(dp784
F120.0
g4
sF100.0
g3
ssS'dDocent_Contig_9426_35'
p785
(dp786
F120.0
g4
sF100.0
g3
ssS'dDocent_Contig_12188_40'
p787
(dp788
F130.0
g3
sF110.0
g4
ssS'dDocent_Contig_18755_35'
p789
(dp790
F100.0
g3
sF110.0
g4
ssS'dDocent_Contig_2775_12'
p791
(dp792
F120.0
g4
sF100.0
g3
ssS'dDocent_Contig_4379_19'
p793
(dp794
F130.0
g4
sF100.0
g3
ssS'dDocent_Contig_34479_74'
p795
(dp796
F130.0
g3
sF100.0
g4
ssS'dDocent_Contig_42146_51'
p797
(dp798
F120.0
g4
sF100.0
g3
ssS'dDocent_Contig_73519_15'
p799
(dp800
F120.0
g4
sF100.0
g3
ssS'dDocent_Contig_14660_7'
p801
(dp802
F100.0
g4
sF110.0
g3
ssS'dDocent_Contig_14340_7'
p803
(dp804
F120.0
g4
sF100.0
g3
ssS'dDocent_Contig_4781_14'
p805
(dp806
F120.0
g4
sF100.0
g3
ssS'dDocent_Contig_6285_53'
p807
(dp808
F120.0
g3
sF100.0
g4
ssS'dDocent_Contig_19322_30'
p809
(dp810
F120.0
g4
sF100.0
g3
ssS'dDocent_Contig_36994_15'
p811
(dp812
F130.0
g4
sF110.0
g3
ssS'dDocent_Contig_46348_9'
p813
(dp814
F120.0
g4
sF100.0
g3
ssS'dDocent_Contig_92541_32'
p815
(dp816
F130.0
g3
sF110.0
g4
ssS'dDocent_Contig_36607_21'
p817
(dp818
F120.0
g4
sF100.0
g3
ssS'dDocent_Contig_17958_29'
p819
(dp820
F130.0
g4
sF110.0
g3
ssS'dDocent_Contig_32000_72'
p821
(dp822
F130.0
g4
sF110.0
g3
ssS'dDocent_Contig_38751_38'
p823
(dp824
F130.0
g4
sF110.0
g3
ssS'dDocent_Contig_46800_46'
p825
(dp826
F120.0
g4
sF130.0
g3
ssS'dDocent_Contig_33940_20'
p827
(dp828
F120.0
g3
sF100.0
g4
ssS'dDocent_Contig_62158_47'
p829
(dp830
F120.0
g3
sF100.0
g4
ssS'dDocent_Contig_60596_12'
p831
(dp832
F120.0
g4
sF100.0
g3
ssS'dDocent_Contig_64762_49'
p833
(dp834
F130.0
g3
sF110.0
g4
ssS'dDocent_Contig_69351_45'
p835
(dp836
F130.0
g4
sF110.0
g3
ssS'dDocent_Contig_53806_13'
p837
(dp838
F130.0
g4
sF110.0
g3
ssS'dDocent_Contig_64754_87'
p839
(dp840
F130.0
g4
sF110.0
g3
ssS'dDocent_Contig_35107_90'
p841
(dp842
F130.0
g3
sF110.0
g4
ssS'dDocent_Contig_37765_21'
p843
(dp844
F120.0
g4
sF110.0
g3
ssS'dDocent_Contig_43300_44'
p845
(dp846
F120.0
g4
sF100.0
g3
ssS'dDocent_Contig_7587_13'
p847
(dp848
F130.0
g4
sF110.0
g3
ssS'dDocent_Contig_39811_18'
p849
(dp850
F120.0
g3
sF100.0
g4
ssS'dDocent_Contig_11624_8'
p851
(dp852
F120.0
g3
sF100.0
g4
ssS'dDocent_Contig_23162_39'
p853
(dp854
F130.0
g3
sF110.0
g4
ssS'dDocent_Contig_76082_74'
p855
(dp856
F120.0
g4
sF100.0
g3
ssS'dDocent_Contig_47453_191'
p857
(dp858
F120.0
g3
sF100.0
g4
ssS'dDocent_Contig_2849_23'
p859
(dp860
F120.0
g3
sF100.0
g4
ssS'dDocent_Contig_49062_50'
p861
(dp862
F120.0
g3
sF100.0
g4
ssS'dDocent_Contig_11326_25'
p863
(dp864
F120.0
g3
sF100.0
g4
ssS'dDocent_Contig_44069_16'
p865
(dp866
F120.0
g4
sF100.0
g3
ssS'dDocent_Contig_2762_7'
p867
(dp868
F120.0
g4
sF100.0
g3
ssS'dDocent_Contig_59367_29'
p869
(dp870
F120.0
g3
sF100.0
g4
ssS'dDocent_Contig_45802_21'
p871
(dp872
F120.0
g4
sF100.0
g3
ssS'dDocent_Contig_69811_12'
p873
(dp874
F130.0
g4
sF100.0
g3
ssS'dDocent_Contig_45311_44'
p875
(dp876
F130.0
g3
sF110.0
g4
ssS'dDocent_Contig_35548_149'
p877
(dp878
F100.0
g3
sF110.0
g4
ssS'dDocent_Contig_40946_67'
p879
(dp880
F120.0
g3
sF110.0
g4
ssS'dDocent_Contig_50723_15'
p881
(dp882
F130.0
g3
sF100.0
g4
ssS'dDocent_Contig_64353_9'
p883
(dp884
F130.0
g3
sF110.0
g4
ssS'dDocent_Contig_85046_19'
p885
(dp886
F120.0
g3
sF130.0
g4
ssS'dDocent_Contig_9003_26'
p887
(dp888
F120.0
g4
sF130.0
g3
ssS'dDocent_Contig_29299_14'
p889
(dp890
F130.0
g4
sF110.0
g3
ssS'dDocent_Contig_10519_65'
p891
(dp892
F120.0
g4
sF100.0
g3
ssS'dDocent_Contig_44344_32'
p893
(dp894
F130.0
g4
sF110.0
g3
ssS'dDocent_Contig_12217_10'
p895
(dp896
F120.0
g3
sF100.0
g4
ssS'dDocent_Contig_8125_7'
p897
(dp898
F130.0
g3
sF110.0
g4
ssS'dDocent_Contig_58485_61'
p899
(dp900
F130.0
g3
sF110.0
g4
ssS'dDocent_Contig_29869_12'
p901
(dp902
F130.0
g4
sF110.0
g3
ssS'dDocent_Contig_4314_121'
p903
(dp904
F120.0
g4
sF100.0
g3
ssS'dDocent_Contig_37452_161'
p905
(dp906
F120.0
g3
sF100.0
g4
ssS'dDocent_Contig_66828_82'
p907
(dp908
F130.0
g4
sF110.0
g3
ssS'dDocent_Contig_59292_7'
p909
(dp910
F120.0
g4
sF100.0
g3
ssS'dDocent_Contig_29603_11'
p911
(dp912
F120.0
g3
sF100.0
g4
ssS'dDocent_Contig_33926_13'
p913
(dp914
F120.0
g4
sF130.0
g3
ssS'dDocent_Contig_22748_19'
p915
(dp916
F120.0
g4
sF130.0
g3
ssS'dDocent_Contig_41037_36'
p917
(dp918
F120.0
g4
sF100.0
g3
ssS'dDocent_Contig_6205_8'
p919
(dp920
F120.0
g4
sF100.0
g3
ssS'dDocent_Contig_18866_12'
p921
(dp922
F120.0
g3
sF100.0
g4
ssS'dDocent_Contig_73257_58'
p923
(dp924
F130.0
g4
sF110.0
g3
ssS'dDocent_Contig_11580_32'
p925
(dp926
F130.0
g4
sF110.0
g3
ssS'dDocent_Contig_10029_43'
p927
(dp928
F120.0
g3
sF100.0
g4
ssS'dDocent_Contig_55906_81'
p929
(dp930
F120.0
g4
sF100.0
g3
ssS'dDocent_Contig_18487_16'
p931
(dp932
F130.0
g4
sF110.0
g3
ssS'dDocent_Contig_43169_41'
p933
(dp934
F120.0
g3
sF100.0
g4
ssS'dDocent_Contig_2164_49'
p935
(dp936
F120.0
g3
sF100.0
g4
ssS'dDocent_Contig_23247_104'
p937
(dp938
F130.0
g3
sF110.0
g4
ssS'dDocent_Contig_64582_22'
p939
(dp940
F130.0
g4
sF110.0
g3
ssS'dDocent_Contig_70990_118'
p941
(dp942
F120.0
g4
sF110.0
g3
ssS'dDocent_Contig_21271_31'
p943
(dp944
F130.0
g4
sF110.0
g3
ssS'dDocent_Contig_10013_20'
p945
(dp946
F120.0
g4
sF100.0
g3
ssS'dDocent_Contig_19825_13'
p947
(dp948
F120.0
g4
sF100.0
g3
ssS'dDocent_Contig_14328_46'
p949
(dp950
F130.0
g3
sF100.0
g4
ssS'dDocent_Contig_81714_11'
p951
(dp952
F120.0
g4
sF100.0
g3
ssS'dDocent_Contig_1318_9'
p953
(dp954
F100.0
g3
sF110.0
g4
ssS'dDocent_Contig_3317_19'
p955
(dp956
F120.0
g4
sF100.0
g3
ssS'dDocent_Contig_1600_99'
p957
(dp958
F130.0
g4
sF110.0
g3
ssS'dDocent_Contig_44972_40'
p959
(dp960
F120.0
g3
sF100.0
g4
ssS'dDocent_Contig_28465_27'
p961
(dp962
F130.0
g3
sF100.0
g4
ssS'dDocent_Contig_26643_102'
p963
(dp964
F100.0
g4
sF110.0
g3
ssS'dDocent_Contig_62876_124'
p965
(dp966
F130.0
g4
sF110.0
g3
ssS'dDocent_Contig_48054_107'
p967
(dp968
F120.0
g3
sF100.0
g4
ssS'dDocent_Contig_10806_18'
p969
(dp970
F120.0
g3
sF100.0
g4
ssS'dDocent_Contig_25755_10'
p971
(dp972
F120.0
g4
sF100.0
g3
ssS'dDocent_Contig_8923_53'
p973
(dp974
F130.0
g4
sF110.0
g3
ssS'dDocent_Contig_47965_29'
p975
(dp976
F120.0
g4
sF100.0
g3
ssS'dDocent_Contig_19266_16'
p977
(dp978
F120.0
g3
sF100.0
g4
ssS'dDocent_Contig_6365_10'
p979
(dp980
F130.0
g4
sF110.0
g3
ssS'dDocent_Contig_16259_37'
p981
(dp982
F120.0
g3
sF100.0
g4
ssS'dDocent_Contig_8877_67'
p983
(dp984
F130.0
g4
sF110.0
g3
ssS'dDocent_Contig_18827_15'
p985
(dp986
F120.0
g4
sF100.0
g3
ssS'dDocent_Contig_40340_39'
p987
(dp988
F120.0
g3
sF130.0
g4
ssS'dDocent_Contig_78531_60'
p989
(dp990
F120.0
g4
sF100.0
g3
ssS'dDocent_Contig_29511_61'
p991
(dp992
F120.0
g4
sF100.0
g3
ssS'dDocent_Contig_15817_8'
p993
(dp994
F130.0
g3
sF110.0
g4
ssS'dDocent_Contig_41563_29'
p995
(dp996
F130.0
g4
sF110.0
g3
ssS'dDocent_Contig_4689_15'
p997
(dp998
F120.0
g4
sF100.0
g3
ssS'dDocent_Contig_57213_26'
p999
(dp1000
F120.0
g4
sF100.0
g3
ssS'dDocent_Contig_44771_7'
p1001
(dp1002
F130.0
g3
sF110.0
g4
ssS'dDocent_Contig_21174_25'
p1003
(dp1004
F120.0
g4
sF100.0
g3
ssS'dDocent_Contig_30960_66'
p1005
(dp1006
F130.0
g4
sF100.0
g3
ssS'dDocent_Contig_49617_122'
p1007
(dp1008
F130.0
g4
sF110.0
g3
ssS'dDocent_Contig_11004_84'
p1009
(dp1010
F120.0
g3
sF100.0
g4
ssS'dDocent_Contig_9042_66'
p1011
(dp1012
F100.0
g3
sF110.0
g4
ssS'dDocent_Contig_56802_11'
p1013
(dp1014
F120.0
g4
sF100.0
g3
ssS'dDocent_Contig_22641_42'
p1015
(dp1016
F130.0
g4
sF110.0
g3
ssS'dDocent_Contig_5404_81'
p1017
(dp1018
F130.0
g4
sF110.0
g3
ssS'dDocent_Contig_3560_38'
p1019
(dp1020
F130.0
g4
sF110.0
g3
ssS'dDocent_Contig_12866_73'
p1021
(dp1022
F120.0
g3
sF100.0
g4
ssS'dDocent_Contig_26262_35'
p1023
(dp1024
F120.0
g3
sF100.0
g4
ssS'dDocent_Contig_19640_8'
p1025
(dp1026
F120.0
g3
sF130.0
g4
ssS'dDocent_Contig_13460_37'
p1027
(dp1028
F100.0
g4
sF110.0
g3
ssS'dDocent_Contig_61197_8'
p1029
(dp1030
F130.0
g4
sF110.0
g3
ssS'dDocent_Contig_38908_146'
p1031
(dp1032
F120.0
g3
sF100.0
g4
ssS'dDocent_Contig_13716_117'
p1033
(dp1034
F120.0
g3
sF100.0
g4
ssS'dDocent_Contig_1536_65'
p1035
(dp1036
F130.0
g4
sF110.0
g3
ssS'dDocent_Contig_29023_43'
p1037
(dp1038
F120.0
g4
sF100.0
g3
ssS'dDocent_Contig_34_55'
p1039
(dp1040
F100.0
g4
sF110.0
g3
ssS'dDocent_Contig_19326_139'
p1041
(dp1042
F100.0
g4
sF110.0
g3
ssS'dDocent_Contig_24383_26'
p1043
(dp1044
F120.0
g4
sF100.0
g3
ssS'dDocent_Contig_84520_71'
p1045
(dp1046
F120.0
g3
sF100.0
g4
ssS'dDocent_Contig_33543_84'
p1047
(dp1048
F120.0
g3
sF130.0
g4
ssS'dDocent_Contig_84218_11'
p1049
(dp1050
F130.0
g4
sF110.0
g3
ssS'dDocent_Contig_91286_24'
p1051
(dp1052
F120.0
g3
sF100.0
g4
ssS'dDocent_Contig_3299_67'
p1053
(dp1054
F120.0
g3
sF100.0
g4
ssS'dDocent_Contig_49732_38'
p1055
(dp1056
F130.0
g3
sF110.0
g4
ssS'dDocent_Contig_72865_44'
p1057
(dp1058
F130.0
g3
sF110.0
g4
ssS'dDocent_Contig_17607_10'
p1059
(dp1060
F130.0
g4
sF110.0
g3
ssS'dDocent_Contig_42840_34'
p1061
(dp1062
F120.0
g3
sF100.0
g4
ssS'dDocent_Contig_66721_56'
p1063
(dp1064
F120.0
g3
sF100.0
g4
ssS'dDocent_Contig_39701_37'
p1065
(dp1066
F120.0
g4
sF100.0
g3
ssS'dDocent_Contig_53981_42'
p1067
(dp1068
F120.0
g4
sF100.0
g3
ssS'dDocent_Contig_75904_19'
p1069
(dp1070
F100.0
g4
sF110.0
g3
ssS'dDocent_Contig_41061_17'
p1071
(dp1072
F130.0
g3
sF110.0
g4
ssS'dDocent_Contig_52740_30'
p1073
(dp1074
F130.0
g4
sF110.0
g3
ssS'dDocent_Contig_4644_87'
p1075
(dp1076
F120.0
g3
sF100.0
g4
ssS'dDocent_Contig_56356_32'
p1077
(dp1078
F130.0
g3
sF100.0
g4
ssS'dDocent_Contig_36475_40'
p1079
(dp1080
F130.0
g4
sF110.0
g3
ssS'dDocent_Contig_44511_14'
p1081
(dp1082
F120.0
g4
sF100.0
g3
ssS'dDocent_Contig_5850_83'
p1083
(dp1084
F130.0
g3
sF110.0
g4
ssS'dDocent_Contig_40633_47'
p1085
(dp1086
F130.0
g3
sF100.0
g4
ssS'dDocent_Contig_90715_17'
p1087
(dp1088
F100.0
g4
sF110.0
g3
ssS'dDocent_Contig_51714_92'
p1089
(dp1090
F120.0
g3
sF100.0
g4
ssS'dDocent_Contig_34790_20'
p1091
(dp1092
F130.0
g3
sF100.0
g4
ssS'dDocent_Contig_2957_18'
p1093
(dp1094
F130.0
g4
sF110.0
g3
ssS'dDocent_Contig_79631_18'
p1095
(dp1096
F120.0
g4
sF100.0
g3
ssS'dDocent_Contig_5170_14'
p1097
(dp1098
F120.0
g4
sF100.0
g3
ssS'dDocent_Contig_8222_18'
p1099
(dp1100
F120.0
g4
sF130.0
g3
ssS'dDocent_Contig_243_11'
p1101
(dp1102
F130.0
g3
sF110.0
g4
ssS'dDocent_Contig_10987_13'
p1103
(dp1104
F120.0
g4
sF100.0
g3
ssS'dDocent_Contig_7875_7'
p1105
(dp1106
F130.0
g3
sF110.0
g4
ssS'dDocent_Contig_4102_13'
p1107
(dp1108
F120.0
g4
sF100.0
g3
ssS'dDocent_Contig_53183_17'
p1109
(dp1110
F120.0
g4
sF100.0
g3
ssS'dDocent_Contig_22678_21'
p1111
(dp1112
F120.0
g3
sF100.0
g4
ssS'dDocent_Contig_12083_52'
p1113
(dp1114
F120.0
g3
sF100.0
g4
ssS'dDocent_Contig_23943_21'
p1115
(dp1116
F130.0
g4
sF110.0
g3
ssS'dDocent_Contig_54052_59'
p1117
(dp1118
F130.0
g3
sF100.0
g4
ssS'dDocent_Contig_19962_34'
p1119
(dp1120
F120.0
g3
sF130.0
g4
ssS'dDocent_Contig_10461_34'
p1121
(dp1122
F120.0
g3
sF100.0
g4
ssS'dDocent_Contig_24254_10'
p1123
(dp1124
F120.0
g4
sF100.0
g3
ssS'dDocent_Contig_39066_10'
p1125
(dp1126
F120.0
g3
sF100.0
g4
ssS'dDocent_Contig_50059_10'
p1127
(dp1128
F120.0
g3
sF100.0
g4
ssS'dDocent_Contig_66178_52'
p1129
(dp1130
F120.0
g3
sF100.0
g4
ssS'dDocent_Contig_4121_41'
p1131
(dp1132
F120.0
g4
sF100.0
g3
ssS'dDocent_Contig_37962_84'
p1133
(dp1134
F120.0
g4
sF100.0
g3
ssS'dDocent_Contig_12603_73'
p1135
(dp1136
F120.0
g3
sF130.0
g4
ssS'dDocent_Contig_21655_56'
p1137
(dp1138
F120.0
g4
sF100.0
g3
ssS'dDocent_Contig_1539_15'
p1139
(dp1140
F130.0
g3
sF110.0
g4
ssS'dDocent_Contig_23433_12'
p1141
(dp1142
F130.0
g3
sF110.0
g4
ssS'dDocent_Contig_72927_23'
p1143
(dp1144
F130.0
g3
sF110.0
g4
ssS'dDocent_Contig_4108_26'
p1145
(dp1146
F130.0
g4
sF110.0
g3
ssS'dDocent_Contig_27376_55'
p1147
(dp1148
F120.0
g3
sF100.0
g4
ssS'dDocent_Contig_3501_208'
p1149
(dp1150
F120.0
g4
sF110.0
g3
ssS'dDocent_Contig_51947_21'
p1151
(dp1152
F120.0
g3
sF130.0
g4
ssS'dDocent_Contig_14195_55'
p1153
(dp1154
F120.0
g3
sF100.0
g4
ssS'dDocent_Contig_6046_246'
p1155
(dp1156
F120.0
g3
sF100.0
g4
ssS'dDocent_Contig_70772_8'
p1157
(dp1158
F130.0
g4
sF110.0
g3
ssS'dDocent_Contig_22214_43'
p1159
(dp1160
F120.0
g3
sF100.0
g4
ssS'dDocent_Contig_6241_23'
p1161
(dp1162
F130.0
g3
sF110.0
g4
ssS'dDocent_Contig_36357_28'
p1163
(dp1164
F120.0
g3
sF100.0
g4
ssS'dDocent_Contig_54259_97'
p1165
(dp1166
F130.0
g4
sF110.0
g3
ssS'dDocent_Contig_15177_14'
p1167
(dp1168
F130.0
g4
sF110.0
g3
ssS'dDocent_Contig_5147_65'
p1169
(dp1170
F120.0
g3
sF100.0
g4
ssS'dDocent_Contig_2855_9'
p1171
(dp1172
F130.0
g4
sF110.0
g3
ssS'dDocent_Contig_46981_15'
p1173
(dp1174
F120.0
g4
sF100.0
g3
ssS'dDocent_Contig_13384_55'
p1175
(dp1176
F130.0
g3
sF110.0
g4
ssS'dDocent_Contig_4088_12'
p1177
(dp1178
F120.0
g4
sF100.0
g3
ssS'dDocent_Contig_83682_14'
p1179
(dp1180
F120.0
g3
sF100.0
g4
ssS'dDocent_Contig_5390_22'
p1181
(dp1182
F130.0
g4
sF100.0
g3
ssS'dDocent_Contig_5760_11'
p1183
(dp1184
F130.0
g4
sF110.0
g3
ssS'dDocent_Contig_4496_41'
p1185
(dp1186
F130.0
g3
sF110.0
g4
ssS'dDocent_Contig_46610_36'
p1187
(dp1188
F130.0
g4
sF110.0
g3
ssS'dDocent_Contig_36249_21'
p1189
(dp1190
F130.0
g3
sF110.0
g4
ssS'dDocent_Contig_1109_41'
p1191
(dp1192
F100.0
g4
sF110.0
g3
ssS'dDocent_Contig_4702_75'
p1193
(dp1194
F120.0
g4
sF100.0
g3
ssS'dDocent_Contig_23188_20'
p1195
(dp1196
F130.0
g4
sF110.0
g3
ssS'dDocent_Contig_661_95'
p1197
(dp1198
F120.0
g3
sF100.0
g4
ssS'dDocent_Contig_19232_10'
p1199
(dp1200
F100.0
g4
sF110.0
g3
ssS'dDocent_Contig_18668_175'
p1201
(dp1202
F120.0
g3
sF100.0
g4
ssS'dDocent_Contig_33372_32'
p1203
(dp1204
F120.0
g3
sF100.0
g4
ssS'dDocent_Contig_7388_58'
p1205
(dp1206
F130.0
g4
sF110.0
g3
ssS'dDocent_Contig_86959_19'
p1207
(dp1208
F130.0
g3
sF110.0
g4
ssS'dDocent_Contig_39027_94'
p1209
(dp1210
F100.0
g4
sF110.0
g3
ssS'dDocent_Contig_14724_7'
p1211
(dp1212
F100.0
g3
sF110.0
g4
ssS'dDocent_Contig_80228_20'
p1213
(dp1214
F120.0
g4
sF100.0
g3
ssS'dDocent_Contig_55364_12'
p1215
(dp1216
F120.0
g3
sF100.0
g4
ssS'dDocent_Contig_20448_27'
p1217
(dp1218
F100.0
g4
sF110.0
g3
ssS'dDocent_Contig_23647_26'
p1219
(dp1220
F120.0
g4
sF100.0
g3
ssS'dDocent_Contig_31307_22'
p1221
(dp1222
F130.0
g4
sF110.0
g3
ssS'dDocent_Contig_8291_29'
p1223
(dp1224
F130.0
g4
sF100.0
g3
ssS'dDocent_Contig_15675_37'
p1225
(dp1226
F130.0
g4
sF100.0
g3
ssS'dDocent_Contig_39368_44'
p1227
(dp1228
F130.0
g3
sF110.0
g4
ssS'dDocent_Contig_30990_16'
p1229
(dp1230
F130.0
g4
sF110.0
g3
ssS'dDocent_Contig_82907_16'
p1231
(dp1232
F130.0
g3
sF110.0
g4
ssS'dDocent_Contig_66366_37'
p1233
(dp1234
F130.0
g4
sF110.0
g3
ssS'dDocent_Contig_8710_40'
p1235
(dp1236
F130.0
g4
sF110.0
g3
ssS'dDocent_Contig_3916_85'
p1237
(dp1238
F130.0
g3
sF110.0
g4
ssS'dDocent_Contig_11434_141'
p1239
(dp1240
F100.0
g4
sF110.0
g3
ssS'dDocent_Contig_24079_43'
p1241
(dp1242
F120.0
g3
sF100.0
g4
ssS'dDocent_Contig_39581_10'
p1243
(dp1244
F100.0
g3
sF110.0
g4
ssS'dDocent_Contig_12296_107'
p1245
(dp1246
F130.0
g4
sF100.0
g3
ssS'dDocent_Contig_60455_17'
p1247
(dp1248
F120.0
g4
sF100.0
g3
ssS'dDocent_Contig_25798_9'
p1249
(dp1250
F130.0
g4
sF100.0
g3
ssS'dDocent_Contig_2777_27'
p1251
(dp1252
F120.0
g3
sF100.0
g4
ssS'dDocent_Contig_12062_9'
p1253
(dp1254
F120.0
g3
sF100.0
g4
ssS'dDocent_Contig_5712_93'
p1255
(dp1256
F130.0
g3
sF110.0
g4
ssS'dDocent_Contig_1663_62'
p1257
(dp1258
F130.0
g3
sF110.0
g4
ssS'dDocent_Contig_17262_186'
p1259
(dp1260
F120.0
g4
sF100.0
g3
ssS'dDocent_Contig_1485_17'
p1261
(dp1262
F130.0
g3
sF110.0
g4
ssS'dDocent_Contig_56724_126'
p1263
(dp1264
F120.0
g3
sF110.0
g4
ssS'dDocent_Contig_35303_19'
p1265
(dp1266
F130.0
g3
sF110.0
g4
ssS'dDocent_Contig_52316_21'
p1267
(dp1268
F130.0
g3
sF110.0
g4
ssS'dDocent_Contig_4224_49'
p1269
(dp1270
F120.0
g4
sF130.0
g3
ssS'dDocent_Contig_29132_40'
p1271
(dp1272
F130.0
g3
sF110.0
g4
ssS'dDocent_Contig_71512_10'
p1273
(dp1274
F130.0
g4
sF110.0
g3
ssS'dDocent_Contig_2211_17'
p1275
(dp1276
F120.0
g4
sF100.0
g3
ssS'dDocent_Contig_31659_26'
p1277
(dp1278
F130.0
g3
sF110.0
g4
ssS'dDocent_Contig_20145_28'
p1279
(dp1280
F120.0
g4
sF100.0
g3
ssS'dDocent_Contig_3248_20'
p1281
(dp1282
F130.0
g4
sF110.0
g3
ssS'dDocent_Contig_23200_79'
p1283
(dp1284
F120.0
g4
sF130.0
g3
ssS'dDocent_Contig_11792_34'
p1285
(dp1286
F120.0
g3
sF130.0
g4
ssS'dDocent_Contig_44439_79'
p1287
(dp1288
F120.0
g4
sF100.0
g3
ssS'dDocent_Contig_31149_36'
p1289
(dp1290
F130.0
g3
sF110.0
g4
ssS'dDocent_Contig_26688_149'
p1291
(dp1292
F130.0
g3
sF110.0
g4
ssS'dDocent_Contig_7333_17'
p1293
(dp1294
F120.0
g4
sF100.0
g3
ssS'dDocent_Contig_32767_25'
p1295
(dp1296
F130.0
g4
sF110.0
g3
ssS'dDocent_Contig_24991_8'
p1297
(dp1298
F120.0
g3
sF100.0
g4
ssS'dDocent_Contig_49186_32'
p1299
(dp1300
F120.0
g3
sF110.0
g4
ssS'dDocent_Contig_33043_16'
p1301
(dp1302
F120.0
g4
sF100.0
g3
ssS'dDocent_Contig_36540_19'
p1303
(dp1304
F130.0
g3
sF100.0
g4
ssS'dDocent_Contig_26331_78'
p1305
(dp1306
F100.0
g4
sF110.0
g3
ssS'dDocent_Contig_39304_15'
p1307
(dp1308
F120.0
g4
sF100.0
g3
ssS'dDocent_Contig_16629_72'
p1309
(dp1310
F120.0
g4
sF100.0
g3
ssS'dDocent_Contig_7466_16'
p1311
(dp1312
F100.0
g3
sF110.0
g4
ssS'dDocent_Contig_69460_15'
p1313
(dp1314
F120.0
g4
sF100.0
g3
ssS'dDocent_Contig_25918_29'
p1315
(dp1316
F120.0
g4
sF100.0
g3
ssS'dDocent_Contig_4965_40'
p1317
(dp1318
F130.0
g4
sF110.0
g3
ssS'dDocent_Contig_33938_13'
p1319
(dp1320
F130.0
g4
sF100.0
g3
ssS'dDocent_Contig_41940_79'
p1321
(dp1322
F120.0
g3
sF100.0
g4
ssS'dDocent_Contig_8690_102'
p1323
(dp1324
F130.0
g3
sF110.0
g4
ssS'dDocent_Contig_7372_10'
p1325
(dp1326
F120.0
g4
sF100.0
g3
ssS'dDocent_Contig_13344_62'
p1327
(dp1328
F120.0
g4
sF100.0
g3
ssS'dDocent_Contig_8631_61'
p1329
(dp1330
F120.0
g3
sF100.0
g4
ssS'dDocent_Contig_15838_39'
p1331
(dp1332
F120.0
g3
sF100.0
g4
ssS'dDocent_Contig_42535_98'
p1333
(dp1334
F130.0
g3
sF110.0
g4
ssS'dDocent_Contig_2135_51'
p1335
(dp1336
F130.0
g3
sF110.0
g4
ssS'dDocent_Contig_19796_21'
p1337
(dp1338
F120.0
g3
sF100.0
g4
ssS'dDocent_Contig_31709_13'
p1339
(dp1340
F120.0
g4
sF100.0
g3
ssS'dDocent_Contig_4358_103'
p1341
(dp1342
F130.0
g3
sF110.0
g4
ssS'dDocent_Contig_883_62'
p1343
(dp1344
F130.0
g3
sF110.0
g4
ssS'dDocent_Contig_23961_11'
p1345
(dp1346
F100.0
g3
sF110.0
g4
ssS'dDocent_Contig_44481_13'
p1347
(dp1348
F120.0
g3
sF130.0
g4
ssS'dDocent_Contig_30652_12'
p1349
(dp1350
F120.0
g3
sF110.0
g4
ssS'dDocent_Contig_30060_10'
p1351
(dp1352
F100.0
g4
sF110.0
g3
ssS'dDocent_Contig_83107_10'
p1353
(dp1354
F120.0
g4
sF100.0
g3
ssS'dDocent_Contig_8689_30'
p1355
(dp1356
F130.0
g4
sF110.0
g3
ssS'dDocent_Contig_63357_41'
p1357
(dp1358
F120.0
g3
sF100.0
g4
ssS'dDocent_Contig_28698_36'
p1359
(dp1360
F120.0
g4
sF100.0
g3
ssS'dDocent_Contig_18176_28'
p1361
(dp1362
F120.0
g3
sF100.0
g4
ssS'dDocent_Contig_7686_46'
p1363
(dp1364
F120.0
g4
sF100.0
g3
ssS'dDocent_Contig_36186_96'
p1365
(dp1366
F120.0
g3
sF130.0
g4
ssS'dDocent_Contig_22492_53'
p1367
(dp1368
F130.0
g3
sF110.0
g4
ssS'dDocent_Contig_52742_40'
p1369
(dp1370
F120.0
g3
sF100.0
g4
ssS'dDocent_Contig_18896_36'
p1371
(dp1372
F100.0
g3
sF110.0
g4
ssS'dDocent_Contig_2103_16'
p1373
(dp1374
F120.0
g3
sF100.0
g4
ssS'dDocent_Contig_20877_18'
p1375
(dp1376
F130.0
g3
sF110.0
g4
ssS'dDocent_Contig_20351_33'
p1377
(dp1378
F130.0
g4
sF110.0
g3
ssS'dDocent_Contig_5328_40'
p1379
(dp1380
F130.0
g4
sF110.0
g3
ssS'dDocent_Contig_49300_12'
p1381
(dp1382
F120.0
g4
sF100.0
g3
ssS'dDocent_Contig_64213_189'
p1383
(dp1384
F130.0
g4
sF110.0
g3
ssS'dDocent_Contig_6434_97'
p1385
(dp1386
F120.0
g3
sF130.0
g4
ssS'dDocent_Contig_31932_34'
p1387
(dp1388
F130.0
g4
sF110.0
g3
ssS'dDocent_Contig_37848_58'
p1389
(dp1390
F100.0
g3
sF110.0
g4
ssS'dDocent_Contig_3610_76'
p1391
(dp1392
F120.0
g3
sF100.0
g4
ssS'dDocent_Contig_4586_85'
p1393
(dp1394
F120.0
g4
sF100.0
g3
ssS'dDocent_Contig_45152_10'
p1395
(dp1396
F130.0
g4
sF110.0
g3
ssS'dDocent_Contig_54614_48'
p1397
(dp1398
F120.0
g3
sF110.0
g4
ssS'dDocent_Contig_7881_93'
p1399
(dp1400
F120.0
g4
sF100.0
g3
ssS'dDocent_Contig_27463_66'
p1401
(dp1402
F130.0
g3
sF110.0
g4
ssS'dDocent_Contig_22052_84'
p1403
(dp1404
F120.0
g3
sF100.0
g4
ssS'dDocent_Contig_59319_69'
p1405
(dp1406
F130.0
g4
sF110.0
g3
ssS'dDocent_Contig_17026_34'
p1407
(dp1408
F120.0
g3
sF100.0
g4
ssS'dDocent_Contig_6963_51'
p1409
(dp1410
F100.0
g4
sF110.0
g3
ssS'dDocent_Contig_81021_91'
p1411
(dp1412
F130.0
g3
sF110.0
g4
ssS'dDocent_Contig_36683_13'
p1413
(dp1414
F120.0
g4
sF100.0
g3
ssS'dDocent_Contig_68370_60'
p1415
(dp1416
F120.0
g3
sF100.0
g4
ssS'dDocent_Contig_31861_9'
p1417
(dp1418
F120.0
g4
sF100.0
g3
ssS'dDocent_Contig_3465_25'
p1419
(dp1420
F130.0
g4
sF110.0
g3
ssS'dDocent_Contig_68604_22'
p1421
(dp1422
F120.0
g4
sF100.0
g3
ssS'dDocent_Contig_940_29'
p1423
(dp1424
F130.0
g4
sF110.0
g3
ssS'dDocent_Contig_45016_91'
p1425
(dp1426
F130.0
g3
sF110.0
g4
ssS'dDocent_Contig_22629_13'
p1427
(dp1428
F120.0
g4
sF100.0
g3
ssS'dDocent_Contig_92515_36'
p1429
(dp1430
F120.0
g3
sF100.0
g4
ssS'dDocent_Contig_1746_41'
p1431
(dp1432
F120.0
g3
sF100.0
g4
ssS'dDocent_Contig_77664_9'
p1433
(dp1434
F130.0
g4
sF110.0
g3
ssS'dDocent_Contig_28339_33'
p1435
(dp1436
F120.0
g4
sF100.0
g3
ssS'dDocent_Contig_7470_88'
p1437
(dp1438
F120.0
g4
sF100.0
g3
ssS'dDocent_Contig_56952_74'
p1439
(dp1440
F120.0
g3
sF100.0
g4
ssS'dDocent_Contig_4503_30'
p1441
(dp1442
F120.0
g3
sF100.0
g4
ssS'dDocent_Contig_11465_20'
p1443
(dp1444
F120.0
g3
sF100.0
g4
ssS'dDocent_Contig_80900_23'
p1445
(dp1446
F120.0
g4
sF100.0
g3
ssS'dDocent_Contig_12587_26'
p1447
(dp1448
F130.0
g4
sF100.0
g3
ssS'dDocent_Contig_33647_108'
p1449
(dp1450
F130.0
g3
sF110.0
g4
ssS'dDocent_Contig_13790_39'
p1451
(dp1452
F120.0
g4
sF100.0
g3
ssS'dDocent_Contig_63855_31'
p1453
(dp1454
F130.0
g3
sF110.0
g4
ssS'dDocent_Contig_22114_29'
p1455
(dp1456
F120.0
g3
sF110.0
g4
ssS'dDocent_Contig_14286_27'
p1457
(dp1458
F130.0
g4
sF110.0
g3
ssS'dDocent_Contig_4094_57'
p1459
(dp1460
F130.0
g3
sF110.0
g4
ssS'dDocent_Contig_21235_62'
p1461
(dp1462
F130.0
g3
sF110.0
g4
ssS'dDocent_Contig_7665_14'
p1463
(dp1464
F120.0
g4
sF130.0
g3
ssS'dDocent_Contig_11988_9'
p1465
(dp1466
F120.0
g3
sF100.0
g4
ssS'dDocent_Contig_22503_55'
p1467
(dp1468
F120.0
g3
sF100.0
g4
ssS'dDocent_Contig_34458_97'
p1469
(dp1470
F120.0
g3
sF100.0
g4
ssS'dDocent_Contig_5031_49'
p1471
(dp1472
F120.0
g4
sF100.0
g3
ssS'dDocent_Contig_63440_30'
p1473
(dp1474
F130.0
g4
sF110.0
g3
ssS'dDocent_Contig_2075_14'
p1475
(dp1476
F130.0
g4
sF110.0
g3
ssS'dDocent_Contig_4599_32'
p1477
(dp1478
F120.0
g3
sF100.0
g4
ssS'dDocent_Contig_13191_9'
p1479
(dp1480
F130.0
g3
sF110.0
g4
ssS'dDocent_Contig_85029_82'
p1481
(dp1482
F120.0
g4
sF100.0
g3
ssS'dDocent_Contig_58552_81'
p1483
(dp1484
F100.0
g4
sF110.0
g3
ssS'dDocent_Contig_83883_45'
p1485
(dp1486
F120.0
g3
sF110.0
g4
ssS'dDocent_Contig_44828_72'
p1487
(dp1488
F130.0
g3
sF110.0
g4
ssS'dDocent_Contig_11119_57'
p1489
(dp1490
F130.0
g4
sF110.0
g3
ssS'dDocent_Contig_39060_13'
p1491
(dp1492
F120.0
g3
sF110.0
g4
ssS'dDocent_Contig_4703_38'
p1493
(dp1494
F120.0
g4
sF130.0
g3
ssS'dDocent_Contig_1986_35'
p1495
(dp1496
F130.0
g3
sF110.0
g4
ssS'dDocent_Contig_2738_9'
p1497
(dp1498
F130.0
g3
sF110.0
g4
ssS'dDocent_Contig_37937_43'
p1499
(dp1500
F130.0
g3
sF110.0
g4
ssS'dDocent_Contig_9592_35'
p1501
(dp1502
F120.0
g4
sF100.0
g3
ssS'dDocent_Contig_25781_93'
p1503
(dp1504
F120.0
g3
sF110.0
g4
ssS'dDocent_Contig_33461_176'
p1505
(dp1506
F120.0
g4
sF100.0
g3
ssS'dDocent_Contig_1276_10'
p1507
(dp1508
F120.0
g3
sF100.0
g4
ssS'dDocent_Contig_90641_29'
p1509
(dp1510
F120.0
g4
sF100.0
g3
ssS'dDocent_Contig_6922_60'
p1511
(dp1512
F120.0
g4
sF100.0
g3
ssS'dDocent_Contig_22622_71'
p1513
(dp1514
F100.0
g4
sF110.0
g3
ssS'dDocent_Contig_264_37'
p1515
(dp1516
F120.0
g4
sF130.0
g3
ssS'dDocent_Contig_87732_16'
p1517
(dp1518
F130.0
g3
sF110.0
g4
ssS'dDocent_Contig_47828_86'
p1519
(dp1520
F120.0
g4
sF100.0
g3
ssS'dDocent_Contig_12853_18'
p1521
(dp1522
F130.0
g3
sF110.0
g4
ssS'dDocent_Contig_32844_25'
p1523
(dp1524
F120.0
g4
sF130.0
g3
ssS'dDocent_Contig_44944_44'
p1525
(dp1526
F100.0
g3
sF110.0
g4
ssS'dDocent_Contig_6317_57'
p1527
(dp1528
F120.0
g4
sF100.0
g3
ssS'dDocent_Contig_4704_14'
p1529
(dp1530
F120.0
g4
sF100.0
g3
ssS'dDocent_Contig_24315_94'
p1531
(dp1532
F100.0
g3
sF110.0
g4
ssS'dDocent_Contig_92695_9'
p1533
(dp1534
F120.0
g3
sF130.0
g4
ssS'dDocent_Contig_5729_85'
p1535
(dp1536
F120.0
g4
sF100.0
g3
ssS'dDocent_Contig_2577_16'
p1537
(dp1538
F130.0
g3
sF110.0
g4
ssS'dDocent_Contig_38686_45'
p1539
(dp1540
F130.0
g3
sF100.0
g4
ssS'dDocent_Contig_392_21'
p1541
(dp1542
F100.0
g3
sF110.0
g4
ssS'dDocent_Contig_4268_34'
p1543
(dp1544
F130.0
g3
sF110.0
g4
ssS'dDocent_Contig_55013_138'
p1545
(dp1546
F130.0
g4
sF110.0
g3
ssS'dDocent_Contig_5828_18'
p1547
(dp1548
F130.0
g3
sF110.0
g4
ssS'dDocent_Contig_10654_18'
p1549
(dp1550
F130.0
g4
sF110.0
g3
ssS'dDocent_Contig_31650_80'
p1551
(dp1552
F130.0
g4
sF110.0
g3
ssS'dDocent_Contig_89052_12'
p1553
(dp1554
F120.0
g3
sF110.0
g4
ssS'dDocent_Contig_5931_9'
p1555
(dp1556
F130.0
g4
sF110.0
g3
ssS'dDocent_Contig_6833_78'
p1557
(dp1558
F100.0
g4
sF110.0
g3
ssS'dDocent_Contig_51819_48'
p1559
(dp1560
F130.0
g3
sF100.0
g4
ssS'dDocent_Contig_52702_56'
p1561
(dp1562
F120.0
g4
sF100.0
g3
ssS'dDocent_Contig_13627_25'
p1563
(dp1564
F130.0
g4
sF110.0
g3
ssS'dDocent_Contig_56018_9'
p1565
(dp1566
F120.0
g3
sF130.0
g4
ssS'dDocent_Contig_22902_23'
p1567
(dp1568
F120.0
g4
sF130.0
g3
ssS'dDocent_Contig_12827_35'
p1569
(dp1570
F120.0
g3
sF100.0
g4
ssS'dDocent_Contig_24184_43'
p1571
(dp1572
F120.0
g3
sF100.0
g4
ssS'dDocent_Contig_38261_27'
p1573
(dp1574
F130.0
g4
sF110.0
g3
ssS'dDocent_Contig_3511_51'
p1575
(dp1576
F120.0
g4
sF100.0
g3
ssS'dDocent_Contig_18822_12'
p1577
(dp1578
F120.0
g4
sF130.0
g3
ssS'dDocent_Contig_52995_98'
p1579
(dp1580
F120.0
g3
sF130.0
g4
ssS'dDocent_Contig_15072_11'
p1581
(dp1582
F130.0
g3
sF110.0
g4
ssS'dDocent_Contig_15458_18'
p1583
(dp1584
F120.0
g4
sF110.0
g3
ssS'dDocent_Contig_81161_178'
p1585
(dp1586
F100.0
g3
sF110.0
g4
ssS'dDocent_Contig_987_16'
p1587
(dp1588
F120.0
g4
sF100.0
g3
ssS'dDocent_Contig_60199_25'
p1589
(dp1590
F120.0
g3
sF100.0
g4
ssS'dDocent_Contig_8061_39'
p1591
(dp1592
F100.0
g3
sF110.0
g4
ssS'dDocent_Contig_466_50'
p1593
(dp1594
F120.0
g3
sF110.0
g4
ssS'dDocent_Contig_24516_10'
p1595
(dp1596
F120.0
g4
sF100.0
g3
ssS'dDocent_Contig_33732_21'
p1597
(dp1598
F120.0
g3
sF100.0
g4
ssS'dDocent_Contig_368_11'
p1599
(dp1600
F130.0
g4
sF110.0
g3
ssS'dDocent_Contig_26557_56'
p1601
(dp1602
F120.0
g4
sF100.0
g3
ssS'dDocent_Contig_72199_149'
p1603
(dp1604
F100.0
g4
sF110.0
g3
ssS'dDocent_Contig_28396_171'
p1605
(dp1606
F130.0
g3
sF110.0
g4
ssS'dDocent_Contig_23428_46'
p1607
(dp1608
F130.0
g4
sF110.0
g3
ssS'dDocent_Contig_41241_21'
p1609
(dp1610
F120.0
g3
sF100.0
g4
ssS'dDocent_Contig_8272_146'
p1611
(dp1612
F130.0
g3
sF110.0
g4
ssS'dDocent_Contig_13694_26'
p1613
(dp1614
F130.0
g3
sF110.0
g4
ssS'dDocent_Contig_19240_31'
p1615
(dp1616
F120.0
g3
sF100.0
g4
ssS'dDocent_Contig_43034_54'
p1617
(dp1618
F120.0
g3
sF100.0
g4
ssS'dDocent_Contig_34931_14'
p1619
(dp1620
F130.0
g4
sF110.0
g3
ssS'dDocent_Contig_4124_39'
p1621
(dp1622
F130.0
g3
sF110.0
g4
ssS'dDocent_Contig_89260_11'
p1623
(dp1624
F130.0
g3
sF110.0
g4
ssS'dDocent_Contig_65801_22'
p1625
(dp1626
F130.0
g4
sF110.0
g3
ssS'dDocent_Contig_23832_7'
p1627
(dp1628
F130.0
g4
sF100.0
g3
ssS'dDocent_Contig_29828_108'
p1629
(dp1630
F130.0
g4
sF110.0
g3
ssS'dDocent_Contig_15842_48'
p1631
(dp1632
F130.0
g3
sF110.0
g4
ssS'dDocent_Contig_3779_65'
p1633
(dp1634
F130.0
g3
sF110.0
g4
ssS'dDocent_Contig_42086_26'
p1635
(dp1636
F130.0
g3
sF110.0
g4
ssS'dDocent_Contig_8204_122'
p1637
(dp1638
F120.0
g4
sF100.0
g3
ssS'dDocent_Contig_24761_60'
p1639
(dp1640
F120.0
g4
sF110.0
g3
ssS'dDocent_Contig_32188_46'
p1641
(dp1642
F130.0
g3
sF110.0
g4
ssS'dDocent_Contig_66204_7'
p1643
(dp1644
F120.0
g3
sF130.0
g4
ssS'dDocent_Contig_486_56'
p1645
(dp1646
F130.0
g3
sF110.0
g4
ssS'dDocent_Contig_44366_41'
p1647
(dp1648
F120.0
g4
sF100.0
g3
ssS'dDocent_Contig_57449_8'
p1649
(dp1650
F120.0
g3
sF100.0
g4
ssS'dDocent_Contig_55276_83'
p1651
(dp1652
F130.0
g4
sF110.0
g3
ssS'dDocent_Contig_62600_19'
p1653
(dp1654
F100.0
g3
sF110.0
g4
ssS'dDocent_Contig_87719_47'
p1655
(dp1656
F130.0
g4
sF110.0
g3
ssS'dDocent_Contig_19992_13'
p1657
(dp1658
F130.0
g4
sF110.0
g3
ssS'dDocent_Contig_4154_39'
p1659
(dp1660
F130.0
g3
sF110.0
g4
ssS'dDocent_Contig_24779_14'
p1661
(dp1662
F120.0
g3
sF100.0
g4
ssS'dDocent_Contig_5379_27'
p1663
(dp1664
F120.0
g4
sF100.0
g3
ssS'dDocent_Contig_18878_14'
p1665
(dp1666
F130.0
g4
sF110.0
g3
ssS'dDocent_Contig_51212_26'
p1667
(dp1668
F130.0
g3
sF110.0
g4
ssS'dDocent_Contig_52865_34'
p1669
(dp1670
F130.0
g3
sF100.0
g4
ssS'dDocent_Contig_81693_52'
p1671
(dp1672
F120.0
g3
sF100.0
g4
ssS'dDocent_Contig_13902_17'
p1673
(dp1674
F120.0
g3
sF100.0
g4
ssS'dDocent_Contig_659_9'
p1675
(dp1676
F130.0
g4
sF110.0
g3
ssS'dDocent_Contig_29826_10'
p1677
(dp1678
F130.0
g3
sF110.0
g4
ssS'dDocent_Contig_5410_65'
p1679
(dp1680
F130.0
g3
sF110.0
g4
ssS'dDocent_Contig_85171_12'
p1681
(dp1682
F120.0
g3
sF100.0
g4
ssS'dDocent_Contig_29181_155'
p1683
(dp1684
F130.0
g3
sF110.0
g4
ssS'dDocent_Contig_148_12'
p1685
(dp1686
F130.0
g4
sF110.0
g3
ssS'dDocent_Contig_657_9'
p1687
(dp1688
F130.0
g4
sF110.0
g3
ssS'dDocent_Contig_12503_33'
p1689
(dp1690
F130.0
g4
sF100.0
g3
ssS'dDocent_Contig_16331_11'
p1691
(dp1692
F130.0
g3
sF110.0
g4
ssS'dDocent_Contig_22035_25'
p1693
(dp1694
F130.0
g4
sF110.0
g3
ssS'dDocent_Contig_32146_32'
p1695
(dp1696
F120.0
g3
sF100.0
g4
ssS'dDocent_Contig_25199_14'
p1697
(dp1698
F120.0
g4
sF100.0
g3
ssS'dDocent_Contig_128_93'
p1699
(dp1700
F120.0
g3
sF130.0
g4
ssS'dDocent_Contig_8032_109'
p1701
(dp1702
F120.0
g3
sF100.0
g4
ssS'dDocent_Contig_33595_58'
p1703
(dp1704
F130.0
g3
sF110.0
g4
ssS'dDocent_Contig_9437_13'
p1705
(dp1706
F130.0
g3
sF100.0
g4
ssS'dDocent_Contig_14835_39'
p1707
(dp1708
F130.0
g4
sF100.0
g3
ssS'dDocent_Contig_6407_7'
p1709
(dp1710
F120.0
g4
sF100.0
g3
ssS'dDocent_Contig_53823_42'
p1711
(dp1712
F130.0
g3
sF110.0
g4
ssS'dDocent_Contig_73459_9'
p1713
(dp1714
F120.0
g3
sF100.0
g4
ssS'dDocent_Contig_20129_8'
p1715
(dp1716
F130.0
g4
sF110.0
g3
ssS'dDocent_Contig_8813_26'
p1717
(dp1718
F100.0
g4
sF110.0
g3
ssS'dDocent_Contig_40302_35'
p1719
(dp1720
F120.0
g4
sF100.0
g3
ssS'dDocent_Contig_65187_24'
p1721
(dp1722
F120.0
g4
sF100.0
g3
ssS'dDocent_Contig_81082_60'
p1723
(dp1724
F130.0
g3
sF110.0
g4
ssS'dDocent_Contig_568_14'
p1725
(dp1726
F120.0
g4
sF100.0
g3
ssS'dDocent_Contig_504_47'
p1727
(dp1728
F120.0
g3
sF100.0
g4
ssS'dDocent_Contig_3986_57'
p1729
(dp1730
F130.0
g3
sF100.0
g4
ssS'dDocent_Contig_13509_82'
p1731
(dp1732
F120.0
g4
sF100.0
g3
ssS'dDocent_Contig_13906_17'
p1733
(dp1734
F130.0
g4
sF110.0
g3
ssS'dDocent_Contig_4455_38'
p1735
(dp1736
F120.0
g3
sF100.0
g4
ssS'dDocent_Contig_52112_142'
p1737
(dp1738
F120.0
g4
sF110.0
g3
ssS'dDocent_Contig_30846_67'
p1739
(dp1740
F100.0
g4
sF110.0
g3
ssS'dDocent_Contig_28752_18'
p1741
(dp1742
F120.0
g4
sF100.0
g3
ssS'dDocent_Contig_36972_100'
p1743
(dp1744
F130.0
g3
sF110.0
g4
ssS'dDocent_Contig_30785_87'
p1745
(dp1746
F130.0
g3
sF110.0
g4
ssS'dDocent_Contig_68999_38'
p1747
(dp1748
F130.0
g4
sF110.0
g3
ssS'dDocent_Contig_58245_7'
p1749
(dp1750
F120.0
g4
sF100.0
g3
ssS'dDocent_Contig_34976_34'
p1751
(dp1752
F130.0
g4
sF110.0
g3
ssS'dDocent_Contig_12617_22'
p1753
(dp1754
F130.0
g4
sF110.0
g3
ssS'dDocent_Contig_24330_126'
p1755
(dp1756
F130.0
g3
sF100.0
g4
ssS'dDocent_Contig_3570_30'
p1757
(dp1758
F130.0
g3
sF110.0
g4
ssS'dDocent_Contig_40247_113'
p1759
(dp1760
F120.0
g4
sF100.0
g3
ssS'dDocent_Contig_75029_28'
p1761
(dp1762
F130.0
g4
sF110.0
g3
ssS'dDocent_Contig_54526_23'
p1763
(dp1764
F130.0
g4
sF110.0
g3
ssS'dDocent_Contig_9945_118'
p1765
(dp1766
F120.0
g3
sF100.0
g4
ssS'dDocent_Contig_2015_11'
p1767
(dp1768
F120.0
g4
sF110.0
g3
ssS'dDocent_Contig_2011_60'
p1769
(dp1770
F120.0
g3
sF100.0
g4
ssS'dDocent_Contig_1081_37'
p1771
(dp1772
F130.0
g4
sF100.0
g3
ssS'dDocent_Contig_1784_38'
p1773
(dp1774
F130.0
g3
sF100.0
g4
ssS'dDocent_Contig_47005_13'
p1775
(dp1776
F130.0
g3
sF110.0
g4
ssS'dDocent_Contig_23259_34'
p1777
(dp1778
F130.0
g4
sF100.0
g3
ssS'dDocent_Contig_6573_55'
p1779
(dp1780
F120.0
g3
sF110.0
g4
ssS'dDocent_Contig_87105_67'
p1781
(dp1782
F120.0
g3
sF110.0
g4
ssS'dDocent_Contig_58321_26'
p1783
(dp1784
F120.0
g3
sF130.0
g4
ssS'dDocent_Contig_30681_185'
p1785
(dp1786
F130.0
g3
sF110.0
g4
ssS'dDocent_Contig_14619_12'
p1787
(dp1788
F130.0
g3
sF100.0
g4
ssS'dDocent_Contig_38247_7'
p1789
(dp1790
F130.0
g4
sF110.0
g3
ssS'dDocent_Contig_69214_33'
p1791
(dp1792
F130.0
g3
sF110.0
g4
ssS'dDocent_Contig_40301_106'
p1793
(dp1794
F130.0
g4
sF110.0
g3
ssS'dDocent_Contig_5862_136'
p1795
(dp1796
F120.0
g3
sF100.0
g4
ssS'dDocent_Contig_35270_12'
p1797
(dp1798
F130.0
g4
sF110.0
g3
ssS'dDocent_Contig_85818_34'
p1799
(dp1800
F130.0
g3
sF100.0
g4
ssS'dDocent_Contig_57469_48'
p1801
(dp1802
F130.0
g3
sF110.0
g4
ssS'dDocent_Contig_49765_43'
p1803
(dp1804
F120.0
g3
sF130.0
g4
ssS'dDocent_Contig_44670_48'
p1805
(dp1806
F120.0
g4
sF100.0
g3
ssS'dDocent_Contig_13821_25'
p1807
(dp1808
F120.0
g3
sF100.0
g4
ssS'dDocent_Contig_47118_193'
p1809
(dp1810
F100.0
g4
sF110.0
g3
ssS'dDocent_Contig_6055_20'
p1811
(dp1812
F120.0
g4
sF130.0
g3
ssS'dDocent_Contig_76375_9'
p1813
(dp1814
F100.0
g3
sF110.0
g4
ssS'dDocent_Contig_21083_21'
p1815
(dp1816
F120.0
g3
sF100.0
g4
ssS'dDocent_Contig_47500_20'
p1817
(dp1818
F120.0
g4
sF100.0
g3
ssS'dDocent_Contig_31550_56'
p1819
(dp1820
F120.0
g4
sF100.0
g3
ssS'dDocent_Contig_50483_94'
p1821
(dp1822
F120.0
g3
sF100.0
g4
ssS'dDocent_Contig_4850_17'
p1823
(dp1824
F130.0
g3
sF110.0
g4
ssS'dDocent_Contig_33836_50'
p1825
(dp1826
F130.0
g3
sF110.0
g4
ssS'dDocent_Contig_58029_38'
p1827
(dp1828
F120.0
g3
sF110.0
g4
ssS'dDocent_Contig_10318_49'
p1829
(dp1830
F130.0
g4
sF110.0
g3
ssS'dDocent_Contig_45755_93'
p1831
(dp1832
F130.0
g4
sF110.0
g3
ssS'dDocent_Contig_5839_7'
p1833
(dp1834
F120.0
g4
sF100.0
g3
ssS'dDocent_Contig_83046_44'
p1835
(dp1836
F130.0
g3
sF110.0
g4
ssS'dDocent_Contig_1149_19'
p1837
(dp1838
F120.0
g4
sF100.0
g3
ssS'dDocent_Contig_2025_21'
p1839
(dp1840
F120.0
g3
sF100.0
g4
ssS'dDocent_Contig_82206_11'
p1841
(dp1842
F120.0
g3
sF100.0
g4
ssS'dDocent_Contig_49167_121'
p1843
(dp1844
F130.0
g3
sF110.0
g4
ssS'dDocent_Contig_24372_72'
p1845
(dp1846
F120.0
g3
sF100.0
g4
ssS'dDocent_Contig_93993_27'
p1847
(dp1848
F120.0
g4
sF100.0
g3
ssS'dDocent_Contig_57966_46'
p1849
(dp1850
F120.0
g4
sF100.0
g3
ssS'dDocent_Contig_10022_36'
p1851
(dp1852
F130.0
g4
sF100.0
g3
ssS'dDocent_Contig_83954_65'
p1853
(dp1854
F130.0
g3
sF110.0
g4
ssS'dDocent_Contig_63940_45'
p1855
(dp1856
F120.0
g3
sF100.0
g4
ssS'dDocent_Contig_54903_19'
p1857
(dp1858
F120.0
g4
sF100.0
g3
ssS'dDocent_Contig_43287_29'
p1859
(dp1860
F100.0
g4
sF110.0
g3
ssS'dDocent_Contig_57066_26'
p1861
(dp1862
F120.0
g4
sF100.0
g3
ssS'dDocent_Contig_4430_30'
p1863
(dp1864
F130.0
g4
sF110.0
g3
ssS'dDocent_Contig_5366_46'
p1865
(dp1866
F120.0
g3
sF100.0
g4
ssS'dDocent_Contig_26955_47'
p1867
(dp1868
F130.0
g4
sF110.0
g3
ssS'dDocent_Contig_60275_25'
p1869
(dp1870
F130.0
g3
sF100.0
g4
ssS'dDocent_Contig_35703_144'
p1871
(dp1872
F130.0
g4
sF110.0
g3
ssS'dDocent_Contig_29392_41'
p1873
(dp1874
F120.0
g4
sF100.0
g3
ssS'dDocent_Contig_21958_66'
p1875
(dp1876
F120.0
g4
sF100.0
g3
ssS'dDocent_Contig_12879_31'
p1877
(dp1878
F130.0
g3
sF110.0
g4
ssS'dDocent_Contig_44938_28'
p1879
(dp1880
F120.0
g4
sF100.0
g3
ssS'dDocent_Contig_24530_26'
p1881
(dp1882
F120.0
g4
sF100.0
g3
ssS'dDocent_Contig_19504_10'
p1883
(dp1884
F130.0
g3
sF110.0
g4
ssS'dDocent_Contig_2162_37'
p1885
(dp1886
F120.0
g3
sF110.0
g4
ssS'dDocent_Contig_3608_53'
p1887
(dp1888
F130.0
g3
sF110.0
g4
ssS'dDocent_Contig_55943_50'
p1889
(dp1890
F120.0
g4
sF100.0
g3
ssS'dDocent_Contig_2331_14'
p1891
(dp1892
F120.0
g4
sF100.0
g3
ssS'dDocent_Contig_14196_27'
p1893
(dp1894
F130.0
g3
sF110.0
g4
ssS'dDocent_Contig_20855_20'
p1895
(dp1896
F130.0
g3
sF110.0
g4
ssS'dDocent_Contig_25112_78'
p1897
(dp1898
F130.0
g3
sF110.0
g4
ssS'dDocent_Contig_66120_74'
p1899
(dp1900
F120.0
g3
sF100.0
g4
ssS'dDocent_Contig_11214_32'
p1901
(dp1902
F130.0
g4
sF110.0
g3
ssS'dDocent_Contig_31751_8'
p1903
(dp1904
F130.0
g3
sF110.0
g4
ssS'dDocent_Contig_676_39'
p1905
(dp1906
F130.0
g4
sF110.0
g3
ssS'dDocent_Contig_47266_41'
p1907
(dp1908
F120.0
g3
sF100.0
g4
ssS'dDocent_Contig_7_78'
p1909
(dp1910
F120.0
g4
sF100.0
g3
ssS'dDocent_Contig_85664_33'
p1911
(dp1912
F130.0
g4
sF110.0
g3
ssS'dDocent_Contig_2247_21'
p1913
(dp1914
F130.0
g3
sF110.0
g4
ssS'dDocent_Contig_23970_7'
p1915
(dp1916
F120.0
g4
sF100.0
g3
ssS'dDocent_Contig_13071_88'
p1917
(dp1918
F120.0
g3
sF100.0
g4
ssS'dDocent_Contig_23930_124'
p1919
(dp1920
F130.0
g4
sF110.0
g3
ssS'dDocent_Contig_75699_73'
p1921
(dp1922
F120.0
g3
sF110.0
g4
ssS'dDocent_Contig_1034_75'
p1923
(dp1924
F120.0
g4
sF130.0
g3
ssS'dDocent_Contig_14617_21'
p1925
(dp1926
F130.0
g3
sF110.0
g4
ssS'dDocent_Contig_16783_28'
p1927
(dp1928
F130.0
g4
sF110.0
g3
ssS'dDocent_Contig_47954_67'
p1929
(dp1930
F120.0
g3
sF130.0
g4
ssS'dDocent_Contig_4423_36'
p1931
(dp1932
F120.0
g4
sF130.0
g3
ssS'dDocent_Contig_269_41'
p1933
(dp1934
F120.0
g4
sF100.0
g3
ssS'dDocent_Contig_55619_12'
p1935
(dp1936
F120.0
g3
sF100.0
g4
ssS'dDocent_Contig_60796_27'
p1937
(dp1938
F120.0
g3
sF110.0
g4
ssS'dDocent_Contig_91313_9'
p1939
(dp1940
F120.0
g4
sF130.0
g3
ssS'dDocent_Contig_15695_29'
p1941
(dp1942
F130.0
g4
sF100.0
g3
ssS'dDocent_Contig_2309_27'
p1943
(dp1944
F130.0
g3
sF100.0
g4
ssS'dDocent_Contig_8306_8'
p1945
(dp1946
F120.0
g4
sF100.0
g3
ssS'dDocent_Contig_14117_7'
p1947
(dp1948
F120.0
g4
sF100.0
g3
ssS'dDocent_Contig_9395_11'
p1949
(dp1950
F120.0
g3
sF100.0
g4
ssS'dDocent_Contig_80240_230'
p1951
(dp1952
F100.0
g4
sF110.0
g3
ssS'dDocent_Contig_16839_22'
p1953
(dp1954
F130.0
g4
sF110.0
g3
ssS'dDocent_Contig_19944_64'
p1955
(dp1956
F130.0
g3
sF110.0
g4
ssS'dDocent_Contig_5318_101'
p1957
(dp1958
F120.0
g3
sF100.0
g4
ssS'dDocent_Contig_62831_24'
p1959
(dp1960
F130.0
g4
sF110.0
g3
ssS'dDocent_Contig_11227_38'
p1961
(dp1962
F120.0
g4
sF100.0
g3
ssS'dDocent_Contig_5093_23'
p1963
(dp1964
F130.0
g4
sF110.0
g3
ssS'dDocent_Contig_40026_36'
p1965
(dp1966
F120.0
g3
sF100.0
g4
ssS'dDocent_Contig_9227_43'
p1967
(dp1968
F100.0
g4
sF110.0
g3
ssS'dDocent_Contig_12748_25'
p1969
(dp1970
F130.0
g4
sF110.0
g3
ssS'dDocent_Contig_8471_11'
p1971
(dp1972
F120.0
g4
sF100.0
g3
ssS'dDocent_Contig_19421_61'
p1973
(dp1974
F120.0
g3
sF100.0
g4
ssS'dDocent_Contig_6977_28'
p1975
(dp1976
F120.0
g4
sF130.0
g3
ssS'dDocent_Contig_80682_33'
p1977
(dp1978
F120.0
g3
sF100.0
g4
ssS'dDocent_Contig_22615_35'
p1979
(dp1980
F130.0
g3
sF110.0
g4
ssS'dDocent_Contig_5550_25'
p1981
(dp1982
F120.0
g4
sF100.0
g3
ssS'dDocent_Contig_12607_84'
p1983
(dp1984
F130.0
g3
sF110.0
g4
ssS'dDocent_Contig_760_17'
p1985
(dp1986
F120.0
g4
sF100.0
g3
ssS'dDocent_Contig_3482_53'
p1987
(dp1988
F120.0
g4
sF130.0
g3
ssS'dDocent_Contig_5062_20'
p1989
(dp1990
F120.0
g4
sF100.0
g3
ssS'dDocent_Contig_1627_109'
p1991
(dp1992
F130.0
g3
sF110.0
g4
ssS'dDocent_Contig_52408_146'
p1993
(dp1994
F120.0
g4
sF100.0
g3
ssS'dDocent_Contig_113_7'
p1995
(dp1996
F120.0
g3
sF100.0
g4
ssS'dDocent_Contig_12281_28'
p1997
(dp1998
F120.0
g4
sF100.0
g3
ssS'dDocent_Contig_40463_7'
p1999
(dp2000
F120.0
g4
sF100.0
g3
ssS'dDocent_Contig_12454_15'
p2001
(dp2002
F120.0
g4
sF100.0
g3
ssS'dDocent_Contig_32840_29'
p2003
(dp2004
F120.0
g3
sF130.0
g4
ssS'dDocent_Contig_9730_37'
p2005
(dp2006
F100.0
g3
sF110.0
g4
ssS'dDocent_Contig_5040_14'
p2007
(dp2008
F130.0
g4
sF110.0
g3
ssS'dDocent_Contig_72534_12'
p2009
(dp2010
F120.0
g4
sF100.0
g3
ssS'dDocent_Contig_49808_98'
p2011
(dp2012
F130.0
g4
sF110.0
g3
ssS'dDocent_Contig_12040_57'
p2013
(dp2014
F130.0
g4
sF110.0
g3
ssS'dDocent_Contig_647_63'
p2015
(dp2016
F120.0
g3
sF110.0
g4
ssS'dDocent_Contig_5695_32'
p2017
(dp2018
F130.0
g3
sF110.0
g4
ssS'dDocent_Contig_19175_18'
p2019
(dp2020
F120.0
g3
sF100.0
g4
ssS'dDocent_Contig_9655_30'
p2021
(dp2022
F120.0
g3
sF100.0
g4
ssS'dDocent_Contig_16126_50'
p2023
(dp2024
F100.0
g4
sF110.0
g3
ssS'dDocent_Contig_68540_13'
p2025
(dp2026
F120.0
g4
sF100.0
g3
ssS'dDocent_Contig_48807_18'
p2027
(dp2028
F130.0
g4
sF110.0
g3
ssS'dDocent_Contig_48061_30'
p2029
(dp2030
F120.0
g4
sF100.0
g3
ssS'dDocent_Contig_22752_62'
p2031
(dp2032
F120.0
g3
sF100.0
g4
ssS'dDocent_Contig_127_40'
p2033
(dp2034
F130.0
g3
sF100.0
g4
ssS'dDocent_Contig_13562_21'
p2035
(dp2036
F120.0
g4
sF130.0
g3
ssS'dDocent_Contig_40153_26'
p2037
(dp2038
F120.0
g4
sF130.0
g3
ssS'dDocent_Contig_31037_13'
p2039
(dp2040
F120.0
g4
sF100.0
g3
ssS'dDocent_Contig_12995_40'
p2041
(dp2042
F120.0
g4
sF100.0
g3
ssS'dDocent_Contig_1159_150'
p2043
(dp2044
F130.0
g3
sF110.0
g4
ssS'dDocent_Contig_10057_7'
p2045
(dp2046
F130.0
g3
sF110.0
g4
ssS'dDocent_Contig_49699_10'
p2047
(dp2048
F130.0
g4
sF110.0
g3
ssS'dDocent_Contig_26878_26'
p2049
(dp2050
F120.0
g4
sF100.0
g3
ssS'dDocent_Contig_42931_24'
p2051
(dp2052
F130.0
g4
sF110.0
g3
ssS'dDocent_Contig_30412_83'
p2053
(dp2054
F120.0
g4
sF100.0
g3
ssS'dDocent_Contig_8649_27'
p2055
(dp2056
F100.0
g3
sF110.0
g4
ssS'dDocent_Contig_24566_18'
p2057
(dp2058
F130.0
g3
sF110.0
g4
ssS'dDocent_Contig_10159_21'
p2059
(dp2060
F120.0
g4
sF100.0
g3
ssS'dDocent_Contig_8768_13'
p2061
(dp2062
F120.0
g4
sF110.0
g3
ssS'dDocent_Contig_7463_38'
p2063
(dp2064
F100.0
g3
sF110.0
g4
ssS'dDocent_Contig_19578_29'
p2065
(dp2066
F120.0
g3
sF100.0
g4
ssS'dDocent_Contig_2782_54'
p2067
(dp2068
F120.0
g3
sF100.0
g4
ssS'dDocent_Contig_3537_19'
p2069
(dp2070
F120.0
g4
sF100.0
g3
ssS'dDocent_Contig_3088_8'
p2071
(dp2072
F120.0
g3
sF110.0
g4
ssS'dDocent_Contig_4883_12'
p2073
(dp2074
F130.0
g3
sF110.0
g4
ssS'dDocent_Contig_17554_42'
p2075
(dp2076
F130.0
g3
sF110.0
g4
ssS'dDocent_Contig_21781_9'
p2077
(dp2078
F130.0
g4
sF110.0
g3
ssS'dDocent_Contig_67137_94'
p2079
(dp2080
F120.0
g4
sF100.0
g3
ssS'dDocent_Contig_2568_69'
p2081
(dp2082
F120.0
g3
sF100.0
g4
ssS'dDocent_Contig_62108_24'
p2083
(dp2084
F120.0
g4
sF100.0
g3
ssS'dDocent_Contig_1976_21'
p2085
(dp2086
F130.0
g4
sF110.0
g3
ssS'dDocent_Contig_83646_172'
p2087
(dp2088
F120.0
g4
sF100.0
g3
ssS'dDocent_Contig_1920_17'
p2089
(dp2090
F120.0
g3
sF100.0
g4
ssS'dDocent_Contig_34986_26'
p2091
(dp2092
F130.0
g4
sF100.0
g3
ssS'dDocent_Contig_79108_40'
p2093
(dp2094
F120.0
g4
sF100.0
g3
ssS'dDocent_Contig_20436_34'
p2095
(dp2096
F120.0
g3
sF100.0
g4
ssS'dDocent_Contig_11705_38'
p2097
(dp2098
F130.0
g4
sF110.0
g3
ssS'dDocent_Contig_58134_29'
p2099
(dp2100
F130.0
g3
sF110.0
g4
ssS'dDocent_Contig_5884_22'
p2101
(dp2102
F120.0
g4
sF100.0
g3
ssS'dDocent_Contig_10375_149'
p2103
(dp2104
F120.0
g4
sF100.0
g3
ssS'dDocent_Contig_22332_18'
p2105
(dp2106
F120.0
g4
sF100.0
g3
ssS'dDocent_Contig_36258_74'
p2107
(dp2108
F130.0
g3
sF110.0
g4
ssS'dDocent_Contig_26925_27'
p2109
(dp2110
F120.0
g3
sF100.0
g4
ssS'dDocent_Contig_6001_22'
p2111
(dp2112
F130.0
g3
sF110.0
g4
ssS'dDocent_Contig_14096_32'
p2113
(dp2114
F130.0
g4
sF100.0
g3
ssS'dDocent_Contig_236_83'
p2115
(dp2116
F130.0
g4
sF110.0
g3
ssS'dDocent_Contig_28448_65'
p2117
(dp2118
F130.0
g3
sF110.0
g4
ssS'dDocent_Contig_13795_30'
p2119
(dp2120
F120.0
g4
sF100.0
g3
ssS'dDocent_Contig_10297_18'
p2121
(dp2122
F130.0
g3
sF110.0
g4
ssS'dDocent_Contig_14623_10'
p2123
(dp2124
F120.0
g3
sF100.0
g4
ssS'dDocent_Contig_4677_11'
p2125
(dp2126
F120.0
g3
sF100.0
g4
ssS'dDocent_Contig_769_33'
p2127
(dp2128
F120.0
g4
sF100.0
g3
ssS'dDocent_Contig_56413_46'
p2129
(dp2130
F100.0
g4
sF110.0
g3
ssS'dDocent_Contig_30690_42'
p2131
(dp2132
F130.0
g4
sF110.0
g3
ssS'dDocent_Contig_9681_21'
p2133
(dp2134
F130.0
g4
sF110.0
g3
ssS'dDocent_Contig_19846_101'
p2135
(dp2136
F120.0
g4
sF100.0
g3
ssS'dDocent_Contig_5965_29'
p2137
(dp2138
F120.0
g3
sF100.0
g4
ssS'dDocent_Contig_26023_41'
p2139
(dp2140
F130.0
g3
sF110.0
g4
ssS'dDocent_Contig_34190_13'
p2141
(dp2142
F130.0
g4
sF110.0
g3
ssS'dDocent_Contig_6233_31'
p2143
(dp2144
F130.0
g3
sF110.0
g4
ssS'dDocent_Contig_35133_28'
p2145
(dp2146
F130.0
g4
sF110.0
g3
ssS'dDocent_Contig_19682_92'
p2147
(dp2148
F120.0
g3
sF100.0
g4
ssS'dDocent_Contig_39309_13'
p2149
(dp2150
F120.0
g3
sF110.0
g4
ssS'dDocent_Contig_28063_75'
p2151
(dp2152
F120.0
g3
sF100.0
g4
ssS'dDocent_Contig_17613_7'
p2153
(dp2154
F120.0
g4
sF110.0
g3
ssS'dDocent_Contig_91173_236'
p2155
(dp2156
F120.0
g4
sF100.0
g3
ssS'dDocent_Contig_4193_9'
p2157
(dp2158
F130.0
g3
sF100.0
g4
ssS'dDocent_Contig_7019_15'
p2159
(dp2160
F130.0
g3
sF110.0
g4
ssS'dDocent_Contig_7842_36'
p2161
(dp2162
F120.0
g3
sF110.0
g4
ssS'dDocent_Contig_22355_29'
p2163
(dp2164
F130.0
g4
sF110.0
g3
ssS'dDocent_Contig_405_10'
p2165
(dp2166
F130.0
g4
sF110.0
g3
ssS'dDocent_Contig_20074_29'
p2167
(dp2168
F130.0
g3
sF110.0
g4
ssS'dDocent_Contig_3879_45'
p2169
(dp2170
F120.0
g3
sF100.0
g4
ssS'dDocent_Contig_62163_18'
p2171
(dp2172
F120.0
g4
sF110.0
g3
ssS'dDocent_Contig_3654_11'
p2173
(dp2174
F120.0
g3
sF100.0
g4
ssS'dDocent_Contig_9012_104'
p2175
(dp2176
F120.0
g3
sF100.0
g4
ssS'dDocent_Contig_66624_60'
p2177
(dp2178
F120.0
g4
sF130.0
g3
ssS'dDocent_Contig_20318_24'
p2179
(dp2180
F130.0
g4
sF110.0
g3
ssS'dDocent_Contig_129_47'
p2181
(dp2182
F120.0
g4
sF100.0
g3
ssS'dDocent_Contig_7382_55'
p2183
(dp2184
F120.0
g4
sF100.0
g3
ssS'dDocent_Contig_91350_13'
p2185
(dp2186
F120.0
g3
sF100.0
g4
ssS'dDocent_Contig_82597_14'
p2187
(dp2188
F120.0
g3
sF100.0
g4
ssS'dDocent_Contig_2368_12'
p2189
(dp2190
F120.0
g3
sF130.0
g4
ssS'dDocent_Contig_29687_11'
p2191
(dp2192
F130.0
g3
sF110.0
g4
ssS'dDocent_Contig_62974_41'
p2193
(dp2194
F100.0
g4
sF110.0
g3
ssS'dDocent_Contig_23511_62'
p2195
(dp2196
F120.0
g3
sF100.0
g4
ssS'dDocent_Contig_12787_26'
p2197
(dp2198
F130.0
g3
sF110.0
g4
ssS'dDocent_Contig_25059_23'
p2199
(dp2200
F130.0
g3
sF110.0
g4
ssS'dDocent_Contig_89971_76'
p2201
(dp2202
F120.0
g4
sF100.0
g3
ssS'dDocent_Contig_48935_129'
p2203
(dp2204
F120.0
g3
sF100.0
g4
ssS'dDocent_Contig_654_115'
p2205
(dp2206
F130.0
g4
sF100.0
g3
ssS'dDocent_Contig_11161_12'
p2207
(dp2208
F120.0
g4
sF130.0
g3
ssS'dDocent_Contig_92606_9'
p2209
(dp2210
F130.0
g3
sF110.0
g4
ssS'dDocent_Contig_25882_110'
p2211
(dp2212
F120.0
g4
sF110.0
g3
ssS'dDocent_Contig_1693_93'
p2213
(dp2214
F100.0
g4
sF110.0
g3
ssS'dDocent_Contig_5162_64'
p2215
(dp2216
F100.0
g3
sF110.0
g4
ssS'dDocent_Contig_46842_7'
p2217
(dp2218
F120.0
g4
sF100.0
g3
ssS'dDocent_Contig_4789_19'
p2219
(dp2220
F120.0
g3
sF100.0
g4
ssS'dDocent_Contig_2863_42'
p2221
(dp2222
F130.0
g3
sF100.0
g4
ssS'dDocent_Contig_17151_46'
p2223
(dp2224
F130.0
g3
sF110.0
g4
ssS'dDocent_Contig_36694_104'
p2225
(dp2226
F130.0
g3
sF110.0
g4
ssS'dDocent_Contig_7076_27'
p2227
(dp2228
F130.0
g3
sF110.0
g4
ssS'dDocent_Contig_50090_27'
p2229
(dp2230
F120.0
g3
sF100.0
g4
ssS'dDocent_Contig_28857_57'
p2231
(dp2232
F120.0
g4
sF110.0
g3
ssS'dDocent_Contig_39873_21'
p2233
(dp2234
F130.0
g3
sF110.0
g4
ssS'dDocent_Contig_11897_42'
p2235
(dp2236
F120.0
g4
sF100.0
g3
ssS'dDocent_Contig_28490_46'
p2237
(dp2238
F130.0
g4
sF110.0
g3
ssS'dDocent_Contig_2638_145'
p2239
(dp2240
F120.0
g4
sF110.0
g3
ssS'dDocent_Contig_30426_41'
p2241
(dp2242
F130.0
g4
sF110.0
g3
ssS'dDocent_Contig_44024_31'
p2243
(dp2244
F130.0
g4
sF110.0
g3
ssS'dDocent_Contig_30635_24'
p2245
(dp2246
F100.0
g3
sF110.0
g4
ssS'dDocent_Contig_23255_27'
p2247
(dp2248
F120.0
g4
sF100.0
g3
ssS'dDocent_Contig_4562_165'
p2249
(dp2250
F120.0
g4
sF100.0
g3
ssS'dDocent_Contig_31937_74'
p2251
(dp2252
F130.0
g3
sF110.0
g4
ssS'dDocent_Contig_10355_8'
p2253
(dp2254
F120.0
g4
sF100.0
g3
ssS'dDocent_Contig_15598_39'
p2255
(dp2256
F120.0
g3
sF100.0
g4
ssS'dDocent_Contig_37086_22'
p2257
(dp2258
F130.0
g4
sF110.0
g3
ssS'dDocent_Contig_36815_102'
p2259
(dp2260
F130.0
g4
sF110.0
g3
ssS'dDocent_Contig_86571_110'
p2261
(dp2262
F130.0
g4
sF110.0
g3
ssS'dDocent_Contig_13825_12'
p2263
(dp2264
F120.0
g3
sF100.0
g4
ssS'dDocent_Contig_65550_22'
p2265
(dp2266
F130.0
g3
sF110.0
g4
ssS'dDocent_Contig_52336_10'
p2267
(dp2268
F130.0
g3
sF110.0
g4
ssS'dDocent_Contig_43601_11'
p2269
(dp2270
F130.0
g4
sF110.0
g3
ssS'dDocent_Contig_64464_9'
p2271
(dp2272
F130.0
g3
sF100.0
g4
ssS'dDocent_Contig_20167_22'
p2273
(dp2274
F130.0
g4
sF110.0
g3
ssS'dDocent_Contig_24802_9'
p2275
(dp2276
F130.0
g3
sF100.0
g4
ssS'dDocent_Contig_15423_7'
p2277
(dp2278
F100.0
g4
sF110.0
g3
ssS'dDocent_Contig_49815_21'
p2279
(dp2280
F130.0
g4
sF110.0
g3
ssS'dDocent_Contig_34462_28'
p2281
(dp2282
F120.0
g3
sF100.0
g4
ssS'dDocent_Contig_5452_26'
p2283
(dp2284
F100.0
g4
sF110.0
g3
ssS'dDocent_Contig_8067_68'
p2285
(dp2286
F120.0
g4
sF100.0
g3
ssS'dDocent_Contig_27081_11'
p2287
(dp2288
F120.0
g4
sF130.0
g3
ssS'dDocent_Contig_21308_133'
p2289
(dp2290
F130.0
g4
sF110.0
g3
ssS'dDocent_Contig_61989_20'
p2291
(dp2292
F120.0
g4
sF100.0
g3
ssS'dDocent_Contig_4647_14'
p2293
(dp2294
F130.0
g3
sF110.0
g4
ssS'dDocent_Contig_58215_8'
p2295
(dp2296
F130.0
g3
sF110.0
g4
ssS'dDocent_Contig_23874_35'
p2297
(dp2298
F130.0
g4
sF110.0
g3
ssS'dDocent_Contig_30001_12'
p2299
(dp2300
F100.0
g3
sF110.0
g4
ssS'dDocent_Contig_36042_54'
p2301
(dp2302
F130.0
g4
sF110.0
g3
ssS'dDocent_Contig_8047_57'
p2303
(dp2304
F120.0
g4
sF100.0
g3
ssS'dDocent_Contig_6321_26'
p2305
(dp2306
F120.0
g4
sF100.0
g3
ssS'dDocent_Contig_14949_18'
p2307
(dp2308
F120.0
g4
sF100.0
g3
ssS'dDocent_Contig_5780_13'
p2309
(dp2310
F130.0
g3
sF110.0
g4
ssS'dDocent_Contig_16125_31'
p2311
(dp2312
F130.0
g3
sF110.0
g4
ssS'dDocent_Contig_20093_164'
p2313
(dp2314
F100.0
g4
sF110.0
g3
ssS'dDocent_Contig_30591_53'
p2315
(dp2316
F120.0
g4
sF130.0
g3
ssS'dDocent_Contig_55542_11'
p2317
(dp2318
F120.0
g4
sF130.0
g3
ssS'dDocent_Contig_34421_13'
p2319
(dp2320
F130.0
g4
sF110.0
g3
ssS'dDocent_Contig_16606_19'
p2321
(dp2322
F120.0
g4
sF100.0
g3
ssS'dDocent_Contig_12395_20'
p2323
(dp2324
F120.0
g4
sF100.0
g3
ssS'dDocent_Contig_67693_33'
p2325
(dp2326
F130.0
g3
sF110.0
g4
ssS'dDocent_Contig_67757_13'
p2327
(dp2328
F130.0
g3
sF110.0
g4
ssS'dDocent_Contig_62136_22'
p2329
(dp2330
F100.0
g3
sF110.0
g4
ssS'dDocent_Contig_80894_50'
p2331
(dp2332
F120.0
g3
sF100.0
g4
ssS'dDocent_Contig_33514_25'
p2333
(dp2334
F120.0
g4
sF110.0
g3
ssS'dDocent_Contig_38069_14'
p2335
(dp2336
F130.0
g3
sF110.0
g4
ssS'dDocent_Contig_67777_13'
p2337
(dp2338
F130.0
g3
sF110.0
g4
ssS'dDocent_Contig_9760_23'
p2339
(dp2340
F120.0
g3
sF100.0
g4
ssS'dDocent_Contig_207_24'
p2341
(dp2342
F120.0
g3
sF100.0
g4
ssS'dDocent_Contig_92613_125'
p2343
(dp2344
F130.0
g3
sF110.0
g4
ssS'dDocent_Contig_41898_20'
p2345
(dp2346
F120.0
g4
sF100.0
g3
ssS'dDocent_Contig_4140_27'
p2347
(dp2348
F130.0
g3
sF110.0
g4
ssS'dDocent_Contig_5405_91'
p2349
(dp2350
F130.0
g3
sF100.0
g4
ssS'dDocent_Contig_43498_67'
p2351
(dp2352
F130.0
g4
sF100.0
g3
ssS'dDocent_Contig_937_24'
p2353
(dp2354
F120.0
g3
sF100.0
g4
ssS'dDocent_Contig_2098_48'
p2355
(dp2356
F120.0
g4
sF100.0
g3
ssS'dDocent_Contig_12234_29'
p2357
(dp2358
F130.0
g4
sF110.0
g3
ssS'dDocent_Contig_49678_60'
p2359
(dp2360
F120.0
g3
sF100.0
g4
ssS'dDocent_Contig_31630_21'
p2361
(dp2362
F120.0
g4
sF100.0
g3
ssS'dDocent_Contig_18590_35'
p2363
(dp2364
F120.0
g3
sF130.0
g4
ssS'dDocent_Contig_39218_12'
p2365
(dp2366
F130.0
g3
sF100.0
g4
ssS'dDocent_Contig_35887_13'
p2367
(dp2368
F130.0
g4
sF110.0
g3
ssS'dDocent_Contig_1577_56'
p2369
(dp2370
F120.0
g3
sF100.0
g4
ssS'dDocent_Contig_81705_12'
p2371
(dp2372
F120.0
g3
sF100.0
g4
ssS'dDocent_Contig_5984_24'
p2373
(dp2374
F120.0
g4
sF100.0
g3
ssS'dDocent_Contig_1299_45'
p2375
(dp2376
F120.0
g3
sF100.0
g4
ssS'dDocent_Contig_42199_41'
p2377
(dp2378
F130.0
g4
sF110.0
g3
ssS'dDocent_Contig_12285_20'
p2379
(dp2380
F130.0
g3
sF110.0
g4
ssS'dDocent_Contig_92154_7'
p2381
(dp2382
F130.0
g3
sF110.0
g4
ssS'dDocent_Contig_66095_47'
p2383
(dp2384
F130.0
g3
sF110.0
g4
ssS'dDocent_Contig_36772_125'
p2385
(dp2386
F130.0
g3
sF110.0
g4
ssS'dDocent_Contig_28970_66'
p2387
(dp2388
F120.0
g4
sF100.0
g3
ssS'dDocent_Contig_3017_26'
p2389
(dp2390
F120.0
g4
sF130.0
g3
ssS'dDocent_Contig_57946_42'
p2391
(dp2392
F120.0
g3
sF100.0
g4
ssS'dDocent_Contig_44187_9'
p2393
(dp2394
F130.0
g3
sF110.0
g4
ssS'dDocent_Contig_5230_68'
p2395
(dp2396
F100.0
g3
sF110.0
g4
ssS'dDocent_Contig_6038_169'
p2397
(dp2398
F120.0
g4
sF100.0
g3
ssS'dDocent_Contig_28064_51'
p2399
(dp2400
F130.0
g3
sF110.0
g4
ssS'dDocent_Contig_11381_23'
p2401
(dp2402
F130.0
g3
sF110.0
g4
ssS'dDocent_Contig_14029_14'
p2403
(dp2404
F120.0
g3
sF100.0
g4
ssS'dDocent_Contig_57791_17'
p2405
(dp2406
F130.0
g3
sF110.0
g4
ssS'dDocent_Contig_27219_122'
p2407
(dp2408
F130.0
g4
sF110.0
g3
ssS'dDocent_Contig_1204_111'
p2409
(dp2410
F130.0
g4
sF110.0
g3
ssS'dDocent_Contig_907_42'
p2411
(dp2412
F120.0
g4
sF100.0
g3
ssS'dDocent_Contig_25613_32'
p2413
(dp2414
F120.0
g3
sF100.0
g4
ssS'dDocent_Contig_50535_51'
p2415
(dp2416
F120.0
g3
sF100.0
g4
ssS'dDocent_Contig_6420_48'
p2417
(dp2418
F130.0
g3
sF110.0
g4
ssS'dDocent_Contig_38368_12'
p2419
(dp2420
F120.0
g3
sF110.0
g4
ssS'dDocent_Contig_52560_7'
p2421
(dp2422
F130.0
g3
sF110.0
g4
ssS'dDocent_Contig_23809_7'
p2423
(dp2424
F130.0
g3
sF110.0
g4
ssS'dDocent_Contig_12817_21'
p2425
(dp2426
F120.0
g3
sF130.0
g4
ssS'dDocent_Contig_55541_46'
p2427
(dp2428
F130.0
g3
sF110.0
g4
ssS'dDocent_Contig_9482_27'
p2429
(dp2430
F130.0
g4
sF110.0
g3
ssS'dDocent_Contig_29506_20'
p2431
(dp2432
F120.0
g4
sF100.0
g3
ssS'dDocent_Contig_12405_13'
p2433
(dp2434
F130.0
g4
sF110.0
g3
ssS'dDocent_Contig_53719_7'
p2435
(dp2436
F120.0
g3
sF100.0
g4
ssS'dDocent_Contig_56457_60'
p2437
(dp2438
F130.0
g3
sF100.0
g4
ssS'dDocent_Contig_17019_29'
p2439
(dp2440
F120.0
g4
sF100.0
g3
ssS'dDocent_Contig_75831_51'
p2441
(dp2442
F120.0
g3
sF100.0
g4
ssS'dDocent_Contig_85720_13'
p2443
(dp2444
F120.0
g4
sF100.0
g3
ssS'dDocent_Contig_42998_7'
p2445
(dp2446
F120.0
g3
sF100.0
g4
ssS'dDocent_Contig_9696_14'
p2447
(dp2448
F130.0
g3
sF110.0
g4
ssS'dDocent_Contig_7532_46'
p2449
(dp2450
F120.0
g4
sF110.0
g3
ssS'dDocent_Contig_28555_76'
p2451
(dp2452
F130.0
g4
sF110.0
g3
ssS'dDocent_Contig_6101_38'
p2453
(dp2454
F130.0
g3
sF110.0
g4
ssS'dDocent_Contig_39863_153'
p2455
(dp2456
F130.0
g4
sF110.0
g3
ssS'dDocent_Contig_9960_10'
p2457
(dp2458
F120.0
g3
sF100.0
g4
ssS'dDocent_Contig_19300_162'
p2459
(dp2460
F130.0
g4
sF110.0
g3
ssS'dDocent_Contig_21499_55'
p2461
(dp2462
F100.0
g3
sF110.0
g4
ssS'dDocent_Contig_22475_23'
p2463
(dp2464
F130.0
g4
sF100.0
g3
ssS'dDocent_Contig_315_9'
p2465
(dp2466
F120.0
g3
sF130.0
g4
ssS'dDocent_Contig_34747_11'
p2467
(dp2468
F130.0
g3
sF110.0
g4
ssS'dDocent_Contig_28071_15'
p2469
(dp2470
F130.0
g4
sF110.0
g3
ssS'dDocent_Contig_15349_48'
p2471
(dp2472
F120.0
g3
sF100.0
g4
ssS'dDocent_Contig_12413_31'
p2473
(dp2474
F120.0
g3
sF100.0
g4
ssS'dDocent_Contig_26971_21'
p2475
(dp2476
F130.0
g4
sF110.0
g3
ssS'dDocent_Contig_11206_18'
p2477
(dp2478
F120.0
g4
sF100.0
g3
ssS'dDocent_Contig_82077_8'
p2479
(dp2480
F120.0
g3
sF100.0
g4
ssS'dDocent_Contig_920_10'
p2481
(dp2482
F130.0
g3
sF110.0
g4
ssS'dDocent_Contig_7490_62'
p2483
(dp2484
F130.0
g4
sF110.0
g3
ssS'dDocent_Contig_15900_11'
p2485
(dp2486
F130.0
g4
sF110.0
g3
ssS'dDocent_Contig_4514_29'
p2487
(dp2488
F130.0
g4
sF110.0
g3
ssS'dDocent_Contig_33337_37'
p2489
(dp2490
F130.0
g4
sF110.0
g3
ssS'dDocent_Contig_61107_46'
p2491
(dp2492
F130.0
g3
sF110.0
g4
ssS'dDocent_Contig_1775_73'
p2493
(dp2494
F120.0
g4
sF100.0
g3
ssS'dDocent_Contig_90798_13'
p2495
(dp2496
F120.0
g4
sF100.0
g3
ssS'dDocent_Contig_4113_22'
p2497
(dp2498
F130.0
g4
sF110.0
g3
ssS'dDocent_Contig_30812_38'
p2499
(dp2500
F130.0
g4
sF110.0
g3
ssS'dDocent_Contig_43231_66'
p2501
(dp2502
F130.0
g4
sF110.0
g3
ssS'dDocent_Contig_15483_25'
p2503
(dp2504
F120.0
g4
sF100.0
g3
ssS'dDocent_Contig_37424_21'
p2505
(dp2506
F130.0
g4
sF110.0
g3
ssS'dDocent_Contig_44644_43'
p2507
(dp2508
F130.0
g4
sF110.0
g3
ssS'dDocent_Contig_42445_97'
p2509
(dp2510
F120.0
g3
sF100.0
g4
ssS'dDocent_Contig_33124_11'
p2511
(dp2512
F120.0
g3
sF100.0
g4
ssS'dDocent_Contig_21292_24'
p2513
(dp2514
F130.0
g4
sF100.0
g3
ssS'dDocent_Contig_7551_14'
p2515
(dp2516
F130.0
g3
sF110.0
g4
ssS'dDocent_Contig_27694_11'
p2517
(dp2518
F120.0
g3
sF100.0
g4
ssS'dDocent_Contig_64266_39'
p2519
(dp2520
F130.0
g3
sF100.0
g4
ssS'dDocent_Contig_37320_11'
p2521
(dp2522
F120.0
g4
sF130.0
g3
ssS'dDocent_Contig_9518_20'
p2523
(dp2524
F120.0
g4
sF100.0
g3
ssS'dDocent_Contig_14261_10'
p2525
(dp2526
F120.0
g4
sF130.0
g3
ssS'dDocent_Contig_19889_101'
p2527
(dp2528
F120.0
g4
sF110.0
g3
ssS'dDocent_Contig_11141_16'
p2529
(dp2530
F130.0
g4
sF110.0
g3
ssS'dDocent_Contig_1271_18'
p2531
(dp2532
F120.0
g4
sF130.0
g3
ssS'dDocent_Contig_81257_18'
p2533
(dp2534
F120.0
g3
sF100.0
g4
ssS'dDocent_Contig_47221_108'
p2535
(dp2536
F120.0
g3
sF100.0
g4
ssS'dDocent_Contig_19800_7'
p2537
(dp2538
F120.0
g3
sF100.0
g4
ssS'dDocent_Contig_8238_17'
p2539
(dp2540
F120.0
g4
sF100.0
g3
ssS'dDocent_Contig_82216_13'
p2541
(dp2542
F120.0
g4
sF100.0
g3
ssS'dDocent_Contig_13598_24'
p2543
(dp2544
F130.0
g4
sF100.0
g3
ssS'dDocent_Contig_15875_55'
p2545
(dp2546
F130.0
g3
sF110.0
g4
ssS'dDocent_Contig_26090_61'
p2547
(dp2548
F130.0
g4
sF110.0
g3
ssS'dDocent_Contig_10240_30'
p2549
(dp2550
F130.0
g3
sF110.0
g4
ssS'dDocent_Contig_52376_22'
p2551
(dp2552
F120.0
g4
sF100.0
g3
ssS'dDocent_Contig_11621_127'
p2553
(dp2554
F130.0
g3
sF110.0
g4
ssS'dDocent_Contig_8034_19'
p2555
(dp2556
F120.0
g3
sF100.0
g4
ssS'dDocent_Contig_15851_23'
p2557
(dp2558
F130.0
g4
sF110.0
g3
ssS'dDocent_Contig_19056_30'
p2559
(dp2560
F120.0
g4
sF100.0
g3
ssS'dDocent_Contig_76421_16'
p2561
(dp2562
F120.0
g3
sF100.0
g4
ssS'dDocent_Contig_12659_260'
p2563
(dp2564
F130.0
g3
sF100.0
g4
ssS'dDocent_Contig_1361_65'
p2565
(dp2566
F120.0
g3
sF100.0
g4
ssS'dDocent_Contig_5814_32'
p2567
(dp2568
F120.0
g4
sF100.0
g3
ssS'dDocent_Contig_3148_17'
p2569
(dp2570
F120.0
g4
sF100.0
g3
ssS'dDocent_Contig_44739_109'
p2571
(dp2572
F130.0
g4
sF110.0
g3
ssS'dDocent_Contig_58363_28'
p2573
(dp2574
F120.0
g3
sF110.0
g4
ssS'dDocent_Contig_19843_9'
p2575
(dp2576
F130.0
g4
sF110.0
g3
ssS'dDocent_Contig_28101_61'
p2577
(dp2578
F120.0
g3
sF110.0
g4
ssS'dDocent_Contig_15464_29'
p2579
(dp2580
F120.0
g4
sF100.0
g3
ssS'dDocent_Contig_72249_41'
p2581
(dp2582
F120.0
g3
sF110.0
g4
ssS'dDocent_Contig_32473_47'
p2583
(dp2584
F130.0
g4
sF110.0
g3
ssS'dDocent_Contig_83806_88'
p2585
(dp2586
F120.0
g3
sF100.0
g4
ssS'dDocent_Contig_85954_135'
p2587
(dp2588
F120.0
g4
sF100.0
g3
ssS'dDocent_Contig_15465_60'
p2589
(dp2590
F120.0
g3
sF100.0
g4
ssS'dDocent_Contig_86848_44'
p2591
(dp2592
F130.0
g3
sF110.0
g4
ssS'dDocent_Contig_25805_18'
p2593
(dp2594
F130.0
g3
sF110.0
g4
ssS'dDocent_Contig_38090_8'
p2595
(dp2596
F130.0
g4
sF110.0
g3
ssS'dDocent_Contig_47372_62'
p2597
(dp2598
F130.0
g3
sF100.0
g4
ssS'dDocent_Contig_30128_23'
p2599
(dp2600
F130.0
g4
sF110.0
g3
ssS'dDocent_Contig_75568_20'
p2601
(dp2602
F120.0
g4
sF100.0
g3
ssS'dDocent_Contig_10893_62'
p2603
(dp2604
F130.0
g4
sF110.0
g3
ssS'dDocent_Contig_69418_29'
p2605
(dp2606
F120.0
g3
sF100.0
g4
ssS'dDocent_Contig_80078_21'
p2607
(dp2608
F120.0
g3
sF100.0
g4
ssS'dDocent_Contig_1403_15'
p2609
(dp2610
F130.0
g4
sF110.0
g3
ssS'dDocent_Contig_65976_33'
p2611
(dp2612
F130.0
g4
sF110.0
g3
ssS'dDocent_Contig_88237_16'
p2613
(dp2614
F130.0
g3
sF110.0
g4
ssS'dDocent_Contig_19925_110'
p2615
(dp2616
F120.0
g4
sF100.0
g3
ssS'dDocent_Contig_68479_57'
p2617
(dp2618
F120.0
g3
sF100.0
g4
ssS'dDocent_Contig_50484_14'
p2619
(dp2620
F130.0
g3
sF110.0
g4
ssS'dDocent_Contig_31649_24'
p2621
(dp2622
F120.0
g3
sF100.0
g4
ssS'dDocent_Contig_37332_9'
p2623
(dp2624
F120.0
g3
sF110.0
g4
ssS'dDocent_Contig_5928_58'
p2625
(dp2626
F120.0
g4
sF100.0
g3
ssS'dDocent_Contig_49529_116'
p2627
(dp2628
F130.0
g4
sF110.0
g3
ssS'dDocent_Contig_40273_90'
p2629
(dp2630
F120.0
g4
sF130.0
g3
ssS'dDocent_Contig_12808_82'
p2631
(dp2632
F120.0
g4
sF100.0
g3
ssS'dDocent_Contig_51722_60'
p2633
(dp2634
F120.0
g3
sF100.0
g4
ssS'dDocent_Contig_8271_80'
p2635
(dp2636
F120.0
g4
sF100.0
g3
ssS'dDocent_Contig_73335_30'
p2637
(dp2638
F130.0
g3
sF110.0
g4
ssS'dDocent_Contig_4643_27'
p2639
(dp2640
F130.0
g4
sF110.0
g3
ssS'dDocent_Contig_21263_50'
p2641
(dp2642
F130.0
g3
sF110.0
g4
ssS'dDocent_Contig_22749_11'
p2643
(dp2644
F120.0
g4
sF100.0
g3
ssS'dDocent_Contig_19985_50'
p2645
(dp2646
F120.0
g3
sF110.0
g4
ssS'dDocent_Contig_6584_63'
p2647
(dp2648
F120.0
g4
sF100.0
g3
ssS'dDocent_Contig_27617_56'
p2649
(dp2650
F130.0
g3
sF110.0
g4
ssS'dDocent_Contig_12297_18'
p2651
(dp2652
F120.0
g4
sF100.0
g3
ssS'dDocent_Contig_7656_16'
p2653
(dp2654
F130.0
g4
sF110.0
g3
ssS'dDocent_Contig_52262_45'
p2655
(dp2656
F130.0
g3
sF110.0
g4
ssS'dDocent_Contig_27629_44'
p2657
(dp2658
F130.0
g4
sF110.0
g3
ssS'dDocent_Contig_29389_12'
p2659
(dp2660
F120.0
g4
sF100.0
g3
ssS'dDocent_Contig_60967_72'
p2661
(dp2662
F130.0
g4
sF110.0
g3
ssS'dDocent_Contig_34825_53'
p2663
(dp2664
F120.0
g3
sF130.0
g4
ssS'dDocent_Contig_60518_11'
p2665
(dp2666
F130.0
g3
sF110.0
g4
ssS'dDocent_Contig_20760_8'
p2667
(dp2668
F120.0
g3
sF100.0
g4
ssS'dDocent_Contig_2954_36'
p2669
(dp2670
F130.0
g4
sF110.0
g3
ssS'dDocent_Contig_50931_33'
p2671
(dp2672
F120.0
g3
sF100.0
g4
ssS'dDocent_Contig_1802_55'
p2673
(dp2674
F130.0
g3
sF110.0
g4
ssS'dDocent_Contig_3546_23'
p2675
(dp2676
F120.0
g3
sF130.0
g4
ssS'dDocent_Contig_30931_48'
p2677
(dp2678
F120.0
g4
sF100.0
g3
ssS'dDocent_Contig_17826_13'
p2679
(dp2680
F130.0
g4
sF110.0
g3
ssS'dDocent_Contig_14652_92'
p2681
(dp2682
F130.0
g3
sF110.0
g4
ssS'dDocent_Contig_52653_56'
p2683
(dp2684
F130.0
g3
sF110.0
g4
ssS'dDocent_Contig_23768_24'
p2685
(dp2686
F130.0
g4
sF110.0
g3
ssS'dDocent_Contig_13365_37'
p2687
(dp2688
F120.0
g3
sF100.0
g4
ssS'dDocent_Contig_16394_33'
p2689
(dp2690
F130.0
g4
sF110.0
g3
ssS'dDocent_Contig_50610_13'
p2691
(dp2692
F120.0
g3
sF100.0
g4
ssS'dDocent_Contig_15432_17'
p2693
(dp2694
F120.0
g4
sF100.0
g3
ssS'dDocent_Contig_34254_13'
p2695
(dp2696
F120.0
g4
sF100.0
g3
ssS'dDocent_Contig_11657_13'
p2697
(dp2698
F120.0
g3
sF100.0
g4
ssS'dDocent_Contig_17940_100'
p2699
(dp2700
F100.0
g3
sF110.0
g4
ssS'dDocent_Contig_21996_51'
p2701
(dp2702
F100.0
g3
sF110.0
g4
ssS'dDocent_Contig_44618_34'
p2703
(dp2704
F120.0
g4
sF100.0
g3
ssS'dDocent_Contig_19968_63'
p2705
(dp2706
F120.0
g3
sF100.0
g4
ssS'dDocent_Contig_4302_44'
p2707
(dp2708
F130.0
g3
sF110.0
g4
ssS'dDocent_Contig_12402_35'
p2709
(dp2710
F120.0
g4
sF100.0
g3
ssS'dDocent_Contig_26440_23'
p2711
(dp2712
F120.0
g4
sF100.0
g3
ssS'dDocent_Contig_2007_43'
p2713
(dp2714
F120.0
g4
sF100.0
g3
ssS'dDocent_Contig_1974_11'
p2715
(dp2716
F130.0
g3
sF110.0
g4
ssS'dDocent_Contig_6737_12'
p2717
(dp2718
F130.0
g4
sF110.0
g3
ssS'dDocent_Contig_53463_12'
p2719
(dp2720
F130.0
g3
sF100.0
g4
ssS'dDocent_Contig_28874_23'
p2721
(dp2722
F120.0
g4
sF110.0
g3
ssS'dDocent_Contig_23168_48'
p2723
(dp2724
F120.0
g4
sF100.0
g3
ssS'dDocent_Contig_56603_198'
p2725
(dp2726
F100.0
g3
sF110.0
g4
ssS'dDocent_Contig_32758_30'
p2727
(dp2728
F100.0
g3
sF110.0
g4
ssS'dDocent_Contig_7017_27'
p2729
(dp2730
F130.0
g4
sF110.0
g3
ssS'dDocent_Contig_8806_112'
p2731
(dp2732
F130.0
g4
sF110.0
g3
ssS'dDocent_Contig_16092_119'
p2733
(dp2734
F130.0
g4
sF110.0
g3
ssS'dDocent_Contig_24147_16'
p2735
(dp2736
F120.0
g4
sF100.0
g3
ssS'dDocent_Contig_23035_36'
p2737
(dp2738
F130.0
g4
sF110.0
g3
ssS'dDocent_Contig_45215_23'
p2739
(dp2740
F130.0
g4
sF100.0
g3
ssS'dDocent_Contig_45959_56'
p2741
(dp2742
F120.0
g4
sF100.0
g3
ssS'dDocent_Contig_13845_11'
p2743
(dp2744
F120.0
g3
sF100.0
g4
ssS'dDocent_Contig_71538_35'
p2745
(dp2746
F120.0
g3
sF100.0
g4
ssS'dDocent_Contig_16809_30'
p2747
(dp2748
F120.0
g3
sF100.0
g4
ssS'dDocent_Contig_44863_9'
p2749
(dp2750
F130.0
g3
sF100.0
g4
ssS'dDocent_Contig_79046_137'
p2751
(dp2752
F130.0
g3
sF110.0
g4
ssS'dDocent_Contig_2715_28'
p2753
(dp2754
F130.0
g3
sF110.0
g4
ssS'dDocent_Contig_37968_11'
p2755
(dp2756
F120.0
g3
sF100.0
g4
ssS'dDocent_Contig_9964_10'
p2757
(dp2758
F100.0
g4
sF110.0
g3
ssS'dDocent_Contig_10476_38'
p2759
(dp2760
F130.0
g3
sF110.0
g4
ssS'dDocent_Contig_37354_33'
p2761
(dp2762
F130.0
g3
sF110.0
g4
ssS'dDocent_Contig_78828_142'
p2763
(dp2764
F130.0
g3
sF110.0
g4
ssS'dDocent_Contig_8899_18'
p2765
(dp2766
F130.0
g3
sF100.0
g4
ssS'dDocent_Contig_83311_38'
p2767
(dp2768
F120.0
g4
sF130.0
g3
ssS'dDocent_Contig_23066_15'
p2769
(dp2770
F130.0
g3
sF110.0
g4
ssS'dDocent_Contig_15767_13'
p2771
(dp2772
F130.0
g3
sF110.0
g4
ssS'dDocent_Contig_31568_126'
p2773
(dp2774
F130.0
g4
sF100.0
g3
ssS'dDocent_Contig_77130_102'
p2775
(dp2776
F100.0
g4
sF110.0
g3
ssS'dDocent_Contig_45373_16'
p2777
(dp2778
F120.0
g3
sF100.0
g4
ssS'dDocent_Contig_4337_34'
p2779
(dp2780
F120.0
g4
sF100.0
g3
ssS'dDocent_Contig_11336_95'
p2781
(dp2782
F100.0
g4
sF110.0
g3
ssS'dDocent_Contig_54682_34'
p2783
(dp2784
F120.0
g4
sF100.0
g3
ssS'dDocent_Contig_26402_22'
p2785
(dp2786
F130.0
g3
sF110.0
g4
ssS'dDocent_Contig_2803_55'
p2787
(dp2788
F120.0
g3
sF100.0
g4
ssS'dDocent_Contig_51369_11'
p2789
(dp2790
F120.0
g3
sF100.0
g4
ssS'dDocent_Contig_1254_8'
p2791
(dp2792
F120.0
g3
sF100.0
g4
ssS'dDocent_Contig_3574_29'
p2793
(dp2794
F120.0
g3
sF100.0
g4
ssS'dDocent_Contig_9065_23'
p2795
(dp2796
F120.0
g4
sF100.0
g3
ssS'dDocent_Contig_47483_10'
p2797
(dp2798
F130.0
g3
sF110.0
g4
ssS'dDocent_Contig_34528_26'
p2799
(dp2800
F120.0
g4
sF110.0
g3
ssS'dDocent_Contig_20601_34'
p2801
(dp2802
F130.0
g3
sF110.0
g4
ssS'dDocent_Contig_2285_57'
p2803
(dp2804
F120.0
g3
sF100.0
g4
ssS'dDocent_Contig_8036_10'
p2805
(dp2806
F120.0
g3
sF100.0
g4
ssS'dDocent_Contig_39282_7'
p2807
(dp2808
F130.0
g3
sF110.0
g4
ssS'dDocent_Contig_30475_9'
p2809
(dp2810
F120.0
g3
sF100.0
g4
ssS'dDocent_Contig_31103_22'
p2811
(dp2812
F120.0
g3
sF100.0
g4
ssS'dDocent_Contig_2173_8'
p2813
(dp2814
F120.0
g3
sF100.0
g4
ssS'dDocent_Contig_890_14'
p2815
(dp2816
F130.0
g4
sF110.0
g3
ssS'dDocent_Contig_3718_19'
p2817
(dp2818
F130.0
g3
sF110.0
g4
ssS'dDocent_Contig_11714_21'
p2819
(dp2820
F120.0
g4
sF130.0
g3
ssS'dDocent_Contig_5038_64'
p2821
(dp2822
F120.0
g3
sF100.0
g4
ssS'dDocent_Contig_92305_134'
p2823
(dp2824
F130.0
g3
sF110.0
g4
ssS'dDocent_Contig_195_13'
p2825
(dp2826
F120.0
g3
sF100.0
g4
ssS'dDocent_Contig_7477_15'
p2827
(dp2828
F130.0
g4
sF110.0
g3
ssS'dDocent_Contig_9034_65'
p2829
(dp2830
F120.0
g4
sF100.0
g3
ssS'dDocent_Contig_11835_47'
p2831
(dp2832
F120.0
g4
sF100.0
g3
ssS'dDocent_Contig_4245_7'
p2833
(dp2834
F120.0
g3
sF110.0
g4
ssS'dDocent_Contig_46067_9'
p2835
(dp2836
F120.0
g4
sF100.0
g3
ssS'dDocent_Contig_39048_86'
p2837
(dp2838
F120.0
g4
sF100.0
g3
ssS'dDocent_Contig_12261_18'
p2839
(dp2840
F120.0
g3
sF110.0
g4
ssS'dDocent_Contig_73920_29'
p2841
(dp2842
F100.0
g4
sF110.0
g3
ssS'dDocent_Contig_13405_118'
p2843
(dp2844
F100.0
g3
sF110.0
g4
ssS'dDocent_Contig_21717_45'
p2845
(dp2846
F130.0
g4
sF110.0
g3
ssS'dDocent_Contig_43007_16'
p2847
(dp2848
F120.0
g3
sF100.0
g4
ssS'dDocent_Contig_14066_72'
p2849
(dp2850
F120.0
g4
sF100.0
g3
ssS'dDocent_Contig_1059_28'
p2851
(dp2852
F120.0
g4
sF100.0
g3
ssS'dDocent_Contig_22651_27'
p2853
(dp2854
F130.0
g4
sF110.0
g3
ssS'dDocent_Contig_8990_18'
p2855
(dp2856
F120.0
g4
sF110.0
g3
ssS'dDocent_Contig_34129_11'
p2857
(dp2858
F130.0
g4
sF110.0
g3
ssS'dDocent_Contig_51359_69'
p2859
(dp2860
F120.0
g3
sF100.0
g4
ssS'dDocent_Contig_9694_24'
p2861
(dp2862
F130.0
g4
sF110.0
g3
ssS'dDocent_Contig_1068_59'
p2863
(dp2864
F130.0
g4
sF110.0
g3
ssS'dDocent_Contig_39527_13'
p2865
(dp2866
F120.0
g3
sF100.0
g4
ssS'dDocent_Contig_8213_187'
p2867
(dp2868
F130.0
g4
sF110.0
g3
ssS'dDocent_Contig_63388_31'
p2869
(dp2870
F130.0
g3
sF110.0
g4
ssS'dDocent_Contig_2427_17'
p2871
(dp2872
F130.0
g3
sF110.0
g4
ssS'dDocent_Contig_7628_19'
p2873
(dp2874
F120.0
g4
sF100.0
g3
ssS'dDocent_Contig_62547_14'
p2875
(dp2876
F130.0
g3
sF110.0
g4
ssS'dDocent_Contig_19936_15'
p2877
(dp2878
F120.0
g4
sF100.0
g3
ssS'dDocent_Contig_5385_114'
p2879
(dp2880
F120.0
g4
sF100.0
g3
ssS'dDocent_Contig_42458_51'
p2881
(dp2882
F120.0
g4
sF100.0
g3
ssS'dDocent_Contig_29973_198'
p2883
(dp2884
F130.0
g3
sF100.0
g4
ssS'dDocent_Contig_10565_20'
p2885
(dp2886
F130.0
g3
sF100.0
g4
ssS'dDocent_Contig_62416_15'
p2887
(dp2888
F120.0
g3
sF100.0
g4
ssS'dDocent_Contig_7204_18'
p2889
(dp2890
F120.0
g4
sF100.0
g3
ssS'dDocent_Contig_5534_38'
p2891
(dp2892
F120.0
g4
sF100.0
g3
ssS'dDocent_Contig_18171_69'
p2893
(dp2894
F100.0
g4
sF110.0
g3
ssS'dDocent_Contig_6053_10'
p2895
(dp2896
F120.0
g4
sF100.0
g3
ssS'dDocent_Contig_55427_18'
p2897
(dp2898
F120.0
g4
sF100.0
g3
ssS'dDocent_Contig_3588_18'
p2899
(dp2900
F130.0
g4
sF110.0
g3
ssS'dDocent_Contig_92581_23'
p2901
(dp2902
F130.0
g3
sF110.0
g4
ssS'dDocent_Contig_8747_10'
p2903
(dp2904
F120.0
g3
sF100.0
g4
ssS'dDocent_Contig_1303_16'
p2905
(dp2906
F130.0
g4
sF110.0
g3
ssS'dDocent_Contig_56573_27'
p2907
(dp2908
F120.0
g3
sF100.0
g4
ssS'dDocent_Contig_5039_66'
p2909
(dp2910
F120.0
g4
sF100.0
g3
ssS'dDocent_Contig_72956_36'
p2911
(dp2912
F120.0
g3
sF100.0
g4
ssS'dDocent_Contig_2175_44'
p2913
(dp2914
F130.0
g4
sF110.0
g3
ssS'dDocent_Contig_13232_20'
p2915
(dp2916
F130.0
g3
sF110.0
g4
ssS'dDocent_Contig_63303_95'
p2917
(dp2918
F120.0
g3
sF100.0
g4
ssS'dDocent_Contig_56443_25'
p2919
(dp2920
F120.0
g3
sF100.0
g4
ssS'dDocent_Contig_65720_60'
p2921
(dp2922
F130.0
g3
sF100.0
g4
ssS'dDocent_Contig_28179_34'
p2923
(dp2924
F120.0
g4
sF100.0
g3
ssS'dDocent_Contig_6219_26'
p2925
(dp2926
F120.0
g4
sF100.0
g3
ssS'dDocent_Contig_4717_11'
p2927
(dp2928
F100.0
g3
sF110.0
g4
ssS'dDocent_Contig_10965_36'
p2929
(dp2930
F120.0
g4
sF100.0
g3
ssS'dDocent_Contig_15772_26'
p2931
(dp2932
F100.0
g3
sF110.0
g4
ssS'dDocent_Contig_32565_16'
p2933
(dp2934
F130.0
g4
sF110.0
g3
ssS'dDocent_Contig_55807_30'
p2935
(dp2936
F130.0
g3
sF110.0
g4
ssS'dDocent_Contig_54929_15'
p2937
(dp2938
F120.0
g3
sF110.0
g4
ssS'dDocent_Contig_2507_29'
p2939
(dp2940
F100.0
g3
sF110.0
g4
ssS'dDocent_Contig_15228_17'
p2941
(dp2942
F130.0
g3
sF110.0
g4
ssS'dDocent_Contig_17205_163'
p2943
(dp2944
F130.0
g3
sF110.0
g4
ssS'dDocent_Contig_24305_29'
p2945
(dp2946
F130.0
g3
sF110.0
g4
ssS'dDocent_Contig_2741_28'
p2947
(dp2948
F120.0
g4
sF130.0
g3
ssS'dDocent_Contig_1756_20'
p2949
(dp2950
F120.0
g4
sF100.0
g3
ssS'dDocent_Contig_26885_48'
p2951
(dp2952
F120.0
g4
sF100.0
g3
ssS'dDocent_Contig_31376_11'
p2953
(dp2954
F120.0
g3
sF100.0
g4
ssS'dDocent_Contig_55219_140'
p2955
(dp2956
F120.0
g4
sF130.0
g3
ssS'dDocent_Contig_14131_28'
p2957
(dp2958
F130.0
g3
sF110.0
g4
ssS'dDocent_Contig_85663_128'
p2959
(dp2960
F130.0
g4
sF110.0
g3
ssS'dDocent_Contig_47955_52'
p2961
(dp2962
F120.0
g4
sF100.0
g3
ssS'dDocent_Contig_10217_124'
p2963
(dp2964
F100.0
g4
sF110.0
g3
ssS'dDocent_Contig_22448_55'
p2965
(dp2966
F120.0
g3
sF100.0
g4
ssS'dDocent_Contig_29078_66'
p2967
(dp2968
F120.0
g3
sF100.0
g4
ssS'dDocent_Contig_29408_20'
p2969
(dp2970
F120.0
g3
sF100.0
g4
ssS'dDocent_Contig_44011_9'
p2971
(dp2972
F120.0
g3
sF100.0
g4
ssS'dDocent_Contig_19037_80'
p2973
(dp2974
F130.0
g3
sF100.0
g4
ssS'dDocent_Contig_27120_14'
p2975
(dp2976
F120.0
g4
sF100.0
g3
ssS'dDocent_Contig_26743_148'
p2977
(dp2978
F130.0
g4
sF110.0
g3
ssS'dDocent_Contig_11782_32'
p2979
(dp2980
F120.0
g3
sF110.0
g4
ssS'dDocent_Contig_6471_36'
p2981
(dp2982
F130.0
g4
sF110.0
g3
ssS'dDocent_Contig_20414_67'
p2983
(dp2984
F130.0
g4
sF110.0
g3
ssS'dDocent_Contig_16048_19'
p2985
(dp2986
F130.0
g3
sF100.0
g4
ssS'dDocent_Contig_13917_18'
p2987
(dp2988
F120.0
g4
sF100.0
g3
ssS'dDocent_Contig_37882_50'
p2989
(dp2990
F120.0
g4
sF110.0
g3
ssS'dDocent_Contig_11151_9'
p2991
(dp2992
F130.0
g3
sF110.0
g4
ssS'dDocent_Contig_22621_51'
p2993
(dp2994
F100.0
g3
sF110.0
g4
ssS'dDocent_Contig_9466_64'
p2995
(dp2996
F120.0
g3
sF100.0
g4
ssS'dDocent_Contig_86232_13'
p2997
(dp2998
F120.0
g3
sF100.0
g4
ssS'dDocent_Contig_3370_15'
p2999
(dp3000
F120.0
g4
sF100.0
g3
ssS'dDocent_Contig_58535_50'
p3001
(dp3002
F120.0
g3
sF100.0
g4
ssS'dDocent_Contig_20834_13'
p3003
(dp3004
F120.0
g4
sF100.0
g3
ssS'dDocent_Contig_18683_27'
p3005
(dp3006
F120.0
g3
sF100.0
g4
ssS'dDocent_Contig_26274_45'
p3007
(dp3008
F130.0
g3
sF110.0
g4
ssS'dDocent_Contig_3259_55'
p3009
(dp3010
F120.0
g3
sF100.0
g4
ssS'dDocent_Contig_14345_17'
p3011
(dp3012
F130.0
g3
sF110.0
g4
ssS'dDocent_Contig_17734_18'
p3013
(dp3014
F120.0
g3
sF100.0
g4
ssS'dDocent_Contig_2536_45'
p3015
(dp3016
F130.0
g3
sF110.0
g4
ssS'dDocent_Contig_43297_122'
p3017
(dp3018
F120.0
g4
sF100.0
g3
ssS'dDocent_Contig_91988_164'
p3019
(dp3020
F120.0
g4
sF130.0
g3
ssS'dDocent_Contig_37113_26'
p3021
(dp3022
F120.0
g3
sF110.0
g4
ssS'dDocent_Contig_29697_108'
p3023
(dp3024
F120.0
g4
sF100.0
g3
ssS'dDocent_Contig_44297_124'
p3025
(dp3026
F120.0
g4
sF100.0
g3
ssS'dDocent_Contig_29345_42'
p3027
(dp3028
F130.0
g4
sF110.0
g3
ssS'dDocent_Contig_19001_26'
p3029
(dp3030
F120.0
g3
sF100.0
g4
ssS'dDocent_Contig_33890_58'
p3031
(dp3032
F120.0
g3
sF100.0
g4
ssS'dDocent_Contig_12647_15'
p3033
(dp3034
F130.0
g4
sF110.0
g3
ssS'dDocent_Contig_46876_55'
p3035
(dp3036
F120.0
g4
sF100.0
g3
ssS'dDocent_Contig_28999_37'
p3037
(dp3038
F130.0
g4
sF110.0
g3
ssS'dDocent_Contig_19179_40'
p3039
(dp3040
F130.0
g4
sF100.0
g3
ssS'dDocent_Contig_25178_40'
p3041
(dp3042
F120.0
g4
sF130.0
g3
ssS'dDocent_Contig_11282_35'
p3043
(dp3044
F100.0
g3
sF110.0
g4
ssS'dDocent_Contig_29263_164'
p3045
(dp3046
F130.0
g3
sF110.0
g4
ssS'dDocent_Contig_52655_13'
p3047
(dp3048
F120.0
g4
sF100.0
g3
ssS'dDocent_Contig_31620_40'
p3049
(dp3050
F130.0
g4
sF110.0
g3
ssS'dDocent_Contig_23688_45'
p3051
(dp3052
F130.0
g3
sF110.0
g4
ssS'dDocent_Contig_8668_12'
p3053
(dp3054
F120.0
g4
sF110.0
g3
ssS'dDocent_Contig_4765_31'
p3055
(dp3056
F120.0
g3
sF100.0
g4
ssS'dDocent_Contig_27163_32'
p3057
(dp3058
F130.0
g3
sF110.0
g4
ssS'dDocent_Contig_36696_12'
p3059
(dp3060
F120.0
g3
sF100.0
g4
ssS'dDocent_Contig_48961_35'
p3061
(dp3062
F120.0
g4
sF100.0
g3
ssS'dDocent_Contig_7145_75'
p3063
(dp3064
F100.0
g3
sF110.0
g4
ssS'dDocent_Contig_14782_43'
p3065
(dp3066
F130.0
g4
sF110.0
g3
ssS'dDocent_Contig_48028_36'
p3067
(dp3068
F120.0
g3
sF100.0
g4
ssS'dDocent_Contig_16619_92'
p3069
(dp3070
F100.0
g4
sF110.0
g3
ssS'dDocent_Contig_1248_140'
p3071
(dp3072
F120.0
g3
sF100.0
g4
ssS'dDocent_Contig_58865_21'
p3073
(dp3074
F130.0
g3
sF110.0
g4
ssS'dDocent_Contig_33991_16'
p3075
(dp3076
F100.0
g3
sF110.0
g4
ssS'dDocent_Contig_30707_7'
p3077
(dp3078
F120.0
g4
sF100.0
g3
ssS'dDocent_Contig_3046_23'
p3079
(dp3080
F120.0
g4
sF100.0
g3
ssS'dDocent_Contig_26230_22'
p3081
(dp3082
F120.0
g3
sF100.0
g4
ssS'dDocent_Contig_18128_147'
p3083
(dp3084
F120.0
g3
sF130.0
g4
ssS'dDocent_Contig_48309_9'
p3085
(dp3086
F120.0
g4
sF100.0
g3
ssS'dDocent_Contig_27460_33'
p3087
(dp3088
F120.0
g3
sF100.0
g4
ssS'dDocent_Contig_25867_39'
p3089
(dp3090
F120.0
g3
sF100.0
g4
ssS'dDocent_Contig_8622_76'
p3091
(dp3092
F130.0
g3
sF100.0
g4
ssS'dDocent_Contig_5689_19'
p3093
(dp3094
F130.0
g3
sF110.0
g4
ssS'dDocent_Contig_31174_65'
p3095
(dp3096
F120.0
g4
sF100.0
g3
ssS'dDocent_Contig_81649_40'
p3097
(dp3098
F120.0
g3
sF100.0
g4
ssS'dDocent_Contig_27830_70'
p3099
(dp3100
F120.0
g3
sF100.0
g4
ssS'dDocent_Contig_9805_13'
p3101
(dp3102
F120.0
g4
sF100.0
g3
ssS'dDocent_Contig_28167_10'
p3103
(dp3104
F130.0
g3
sF110.0
g4
ssS'dDocent_Contig_81042_58'
p3105
(dp3106
F120.0
g3
sF100.0
g4
ssS'dDocent_Contig_1801_36'
p3107
(dp3108
F120.0
g4
sF100.0
g3
ssS'dDocent_Contig_9222_84'
p3109
(dp3110
F130.0
g4
sF110.0
g3
ssS'dDocent_Contig_43921_8'
p3111
(dp3112
F120.0
g3
sF100.0
g4
ssS'dDocent_Contig_63_50'
p3113
(dp3114
F130.0
g3
sF110.0
g4
ssS'dDocent_Contig_2117_29'
p3115
(dp3116
F120.0
g3
sF110.0
g4
ssS'dDocent_Contig_13263_9'
p3117
(dp3118
F130.0
g4
sF110.0
g3
ssS'dDocent_Contig_16041_11'
p3119
(dp3120
F120.0
g3
sF100.0
g4
ssS'dDocent_Contig_36449_15'
p3121
(dp3122
F120.0
g3
sF100.0
g4
ssS'dDocent_Contig_2532_20'
p3123
(dp3124
F120.0
g3
sF100.0
g4
ssS'dDocent_Contig_34905_28'
p3125
(dp3126
F130.0
g4
sF110.0
g3
ssS'dDocent_Contig_3379_79'
p3127
(dp3128
F120.0
g3
sF100.0
g4
ssS'dDocent_Contig_13261_8'
p3129
(dp3130
F120.0
g4
sF110.0
g3
ssS'dDocent_Contig_5198_55'
p3131
(dp3132
F120.0
g4
sF100.0
g3
ssS'dDocent_Contig_1651_33'
p3133
(dp3134
F130.0
g3
sF110.0
g4
ssS'dDocent_Contig_40211_47'
p3135
(dp3136
F120.0
g3
sF100.0
g4
ssS'dDocent_Contig_20996_105'
p3137
(dp3138
F120.0
g3
sF100.0
g4
ssS'dDocent_Contig_945_44'
p3139
(dp3140
F120.0
g3
sF100.0
g4
ssS'dDocent_Contig_14571_13'
p3141
(dp3142
F100.0
g4
sF110.0
g3
ssS'dDocent_Contig_28008_59'
p3143
(dp3144
F120.0
g4
sF100.0
g3
ssS'dDocent_Contig_9950_20'
p3145
(dp3146
F130.0
g3
sF110.0
g4
ssS'dDocent_Contig_55964_28'
p3147
(dp3148
F120.0
g3
sF100.0
g4
ssS'dDocent_Contig_2278_43'
p3149
(dp3150
F100.0
g4
sF110.0
g3
ssS'dDocent_Contig_10427_8'
p3151
(dp3152
F120.0
g4
sF110.0
g3
ssS'dDocent_Contig_75006_35'
p3153
(dp3154
F130.0
g3
sF110.0
g4
ssS'dDocent_Contig_10220_20'
p3155
(dp3156
F120.0
g3
sF100.0
g4
ssS'dDocent_Contig_61449_26'
p3157
(dp3158
F120.0
g3
sF100.0
g4
ssS'dDocent_Contig_73623_52'
p3159
(dp3160
F120.0
g3
sF100.0
g4
ssS'dDocent_Contig_53862_195'
p3161
(dp3162
F130.0
g4
sF110.0
g3
ssS'dDocent_Contig_31385_45'
p3163
(dp3164
F120.0
g4
sF100.0
g3
ssS'dDocent_Contig_3121_38'
p3165
(dp3166
F130.0
g4
sF110.0
g3
ssS'dDocent_Contig_67123_61'
p3167
(dp3168
F120.0
g4
sF110.0
g3
ssS'dDocent_Contig_41541_34'
p3169
(dp3170
F130.0
g4
sF110.0
g3
ssS'dDocent_Contig_4306_14'
p3171
(dp3172
F130.0
g3
sF110.0
g4
ssS'dDocent_Contig_31735_32'
p3173
(dp3174
F130.0
g3
sF110.0
g4
ssS'dDocent_Contig_3868_12'
p3175
(dp3176
F120.0
g3
sF110.0
g4
ssS'dDocent_Contig_4495_13'
p3177
(dp3178
F130.0
g3
sF110.0
g4
ssS'dDocent_Contig_10772_41'
p3179
(dp3180
F120.0
g3
sF100.0
g4
ssS'dDocent_Contig_688_47'
p3181
(dp3182
F120.0
g3
sF100.0
g4
ssS'dDocent_Contig_6837_34'
p3183
(dp3184
F130.0
g4
sF110.0
g3
ssS'dDocent_Contig_29358_149'
p3185
(dp3186
F130.0
g3
sF110.0
g4
ssS'dDocent_Contig_7043_17'
p3187
(dp3188
F130.0
g4
sF110.0
g3
ssS'dDocent_Contig_64889_9'
p3189
(dp3190
F130.0
g3
sF110.0
g4
ssS'dDocent_Contig_8307_63'
p3191
(dp3192
F120.0
g3
sF100.0
g4
ssS'dDocent_Contig_9610_175'
p3193
(dp3194
F130.0
g3
sF110.0
g4
ssS'dDocent_Contig_132_55'
p3195
(dp3196
F120.0
g4
sF100.0
g3
ssS'dDocent_Contig_3526_38'
p3197
(dp3198
F120.0
g3
sF100.0
g4
ssS'dDocent_Contig_75147_82'
p3199
(dp3200
F120.0
g3
sF100.0
g4
ssS'dDocent_Contig_11996_111'
p3201
(dp3202
F120.0
g3
sF100.0
g4
ssS'dDocent_Contig_7310_105'
p3203
(dp3204
F120.0
g3
sF100.0
g4
ssS'dDocent_Contig_16743_66'
p3205
(dp3206
F130.0
g3
sF110.0
g4
ssS'dDocent_Contig_34475_95'
p3207
(dp3208
F120.0
g3
sF110.0
g4
ssS'dDocent_Contig_89297_17'
p3209
(dp3210
F130.0
g3
sF110.0
g4
ssS'dDocent_Contig_13984_50'
p3211
(dp3212
F120.0
g4
sF100.0
g3
ssS'dDocent_Contig_50089_9'
p3213
(dp3214
F130.0
g4
sF110.0
g3
ssS'dDocent_Contig_4851_18'
p3215
(dp3216
F120.0
g4
sF110.0
g3
ssS'dDocent_Contig_48852_50'
p3217
(dp3218
F120.0
g4
sF100.0
g3
ssS'dDocent_Contig_27699_27'
p3219
(dp3220
F120.0
g3
sF100.0
g4
ssS'dDocent_Contig_10586_61'
p3221
(dp3222
F120.0
g3
sF100.0
g4
ssS'dDocent_Contig_28710_28'
p3223
(dp3224
F130.0
g4
sF110.0
g3
ssS'dDocent_Contig_9768_11'
p3225
(dp3226
F130.0
g3
sF100.0
g4
ssS'dDocent_Contig_17658_49'
p3227
(dp3228
F130.0
g3
sF110.0
g4
ssS'dDocent_Contig_62926_78'
p3229
(dp3230
F130.0
g4
sF110.0
g3
ssS'dDocent_Contig_77684_80'
p3231
(dp3232
F120.0
g3
sF100.0
g4
ssS'dDocent_Contig_46096_61'
p3233
(dp3234
F120.0
g4
sF100.0
g3
ssS'dDocent_Contig_23017_66'
p3235
(dp3236
F120.0
g4
sF100.0
g3
ssS'dDocent_Contig_35929_162'
p3237
(dp3238
F120.0
g3
sF130.0
g4
ssS'dDocent_Contig_2207_9'
p3239
(dp3240
F130.0
g4
sF110.0
g3
ssS'dDocent_Contig_14607_73'
p3241
(dp3242
F120.0
g3
sF100.0
g4
ssS'dDocent_Contig_93036_87'
p3243
(dp3244
F120.0
g3
sF100.0
g4
ssS'dDocent_Contig_56556_65'
p3245
(dp3246
F120.0
g3
sF100.0
g4
ssS'dDocent_Contig_9554_79'
p3247
(dp3248
F130.0
g4
sF110.0
g3
ssS'dDocent_Contig_3320_35'
p3249
(dp3250
F120.0
g3
sF100.0
g4
ssS'dDocent_Contig_8753_48'
p3251
(dp3252
F120.0
g3
sF100.0
g4
ssS'dDocent_Contig_37537_82'
p3253
(dp3254
F120.0
g4
sF130.0
g3
ssS'dDocent_Contig_1808_22'
p3255
(dp3256
F130.0
g4
sF110.0
g3
ssS'dDocent_Contig_46149_49'
p3257
(dp3258
F130.0
g3
sF110.0
g4
ssS'dDocent_Contig_63401_19'
p3259
(dp3260
F120.0
g3
sF100.0
g4
ssS'dDocent_Contig_11464_31'
p3261
(dp3262
F130.0
g4
sF110.0
g3
ssS'dDocent_Contig_8586_30'
p3263
(dp3264
F130.0
g4
sF110.0
g3
ssS'dDocent_Contig_7047_17'
p3265
(dp3266
F130.0
g4
sF110.0
g3
ssS'dDocent_Contig_18821_7'
p3267
(dp3268
F130.0
g4
sF110.0
g3
ssS'dDocent_Contig_11259_59'
p3269
(dp3270
F130.0
g4
sF110.0
g3
ssS'dDocent_Contig_33157_115'
p3271
(dp3272
F120.0
g3
sF110.0
g4
ssS'dDocent_Contig_12364_26'
p3273
(dp3274
F130.0
g3
sF110.0
g4
ssS'dDocent_Contig_2956_7'
p3275
(dp3276
F130.0
g4
sF100.0
g3
ssS'dDocent_Contig_13571_19'
p3277
(dp3278
F120.0
g4
sF110.0
g3
ssS'dDocent_Contig_55989_100'
p3279
(dp3280
F130.0
g3
sF100.0
g4
ssS'dDocent_Contig_91_38'
p3281
(dp3282
F120.0
g4
sF110.0
g3
ssS'dDocent_Contig_71719_17'
p3283
(dp3284
F130.0
g3
sF110.0
g4
ssS'dDocent_Contig_11829_73'
p3285
(dp3286
F120.0
g3
sF100.0
g4
ssS'dDocent_Contig_28197_111'
p3287
(dp3288
F130.0
g3
sF110.0
g4
ssS'dDocent_Contig_17648_51'
p3289
(dp3290
F130.0
g3
sF110.0
g4
ssS'dDocent_Contig_4225_27'
p3291
(dp3292
F120.0
g3
sF130.0
g4
ssS'dDocent_Contig_55657_36'
p3293
(dp3294
F130.0
g4
sF110.0
g3
ssS'dDocent_Contig_45589_38'
p3295
(dp3296
F120.0
g3
sF100.0
g4
ssS'dDocent_Contig_16880_40'
p3297
(dp3298
F120.0
g3
sF100.0
g4
ssS'dDocent_Contig_35088_9'
p3299
(dp3300
F130.0
g3
sF100.0
g4
ssS'dDocent_Contig_16805_27'
p3301
(dp3302
F130.0
g4
sF100.0
g3
ssS'dDocent_Contig_23399_11'
p3303
(dp3304
F120.0
g4
sF100.0
g3
ssS'dDocent_Contig_13881_8'
p3305
(dp3306
F100.0
g4
sF110.0
g3
ssS'dDocent_Contig_38384_17'
p3307
(dp3308
F130.0
g3
sF110.0
g4
ssS'dDocent_Contig_11419_7'
p3309
(dp3310
F120.0
g3
sF100.0
g4
ssS'dDocent_Contig_25791_131'
p3311
(dp3312
F120.0
g4
sF100.0
g3
ssS'dDocent_Contig_17680_39'
p3313
(dp3314
F120.0
g4
sF110.0
g3
ssS'dDocent_Contig_60854_53'
p3315
(dp3316
F130.0
g3
sF110.0
g4
ssS'dDocent_Contig_10363_64'
p3317
(dp3318
F120.0
g4
sF100.0
g3
ssS'dDocent_Contig_8461_11'
p3319
(dp3320
F130.0
g3
sF110.0
g4
ssS'dDocent_Contig_12743_72'
p3321
(dp3322
F120.0
g3
sF100.0
g4
ssS'dDocent_Contig_80969_54'
p3323
(dp3324
F130.0
g3
sF110.0
g4
ssS'dDocent_Contig_13156_18'
p3325
(dp3326
F120.0
g4
sF100.0
g3
ssS'dDocent_Contig_85978_165'
p3327
(dp3328
F130.0
g3
sF100.0
g4
ssS'dDocent_Contig_17125_9'
p3329
(dp3330
F130.0
g4
sF110.0
g3
ssS'dDocent_Contig_21178_111'
p3331
(dp3332
F100.0
g4
sF110.0
g3
ssS'dDocent_Contig_24909_11'
p3333
(dp3334
F120.0
g3
sF100.0
g4
ssS'dDocent_Contig_30162_34'
p3335
(dp3336
F130.0
g4
sF110.0
g3
ssS'dDocent_Contig_42955_152'
p3337
(dp3338
F120.0
g3
sF130.0
g4
ssS'dDocent_Contig_52683_35'
p3339
(dp3340
F130.0
g4
sF110.0
g3
ssS'dDocent_Contig_25292_15'
p3341
(dp3342
F100.0
g3
sF110.0
g4
ssS'dDocent_Contig_44229_48'
p3343
(dp3344
F130.0
g3
sF110.0
g4
ssS'dDocent_Contig_25996_55'
p3345
(dp3346
F130.0
g3
sF110.0
g4
ssS'dDocent_Contig_75782_35'
p3347
(dp3348
F130.0
g3
sF110.0
g4
ssS'dDocent_Contig_62303_48'
p3349
(dp3350
F120.0
g3
sF100.0
g4
ssS'dDocent_Contig_81310_50'
p3351
(dp3352
F120.0
g4
sF100.0
g3
ssS'dDocent_Contig_8423_23'
p3353
(dp3354
F120.0
g3
sF100.0
g4
ssS'dDocent_Contig_76611_39'
p3355
(dp3356
F130.0
g3
sF100.0
g4
ssS'dDocent_Contig_43558_18'
p3357
(dp3358
F120.0
g3
sF100.0
g4
ssS'dDocent_Contig_5854_19'
p3359
(dp3360
F120.0
g4
sF100.0
g3
ssS'dDocent_Contig_57931_43'
p3361
(dp3362
F120.0
g3
sF130.0
g4
ssS'dDocent_Contig_28076_102'
p3363
(dp3364
F120.0
g3
sF130.0
g4
ssS'dDocent_Contig_21452_22'
p3365
(dp3366
F130.0
g3
sF110.0
g4
ssS'dDocent_Contig_7789_18'
p3367
(dp3368
F120.0
g4
sF100.0
g3
ssS'dDocent_Contig_50812_117'
p3369
(dp3370
F130.0
g4
sF110.0
g3
ssS'dDocent_Contig_53526_50'
p3371
(dp3372
F120.0
g4
sF100.0
g3
ssS'dDocent_Contig_43027_7'
p3373
(dp3374
F130.0
g3
sF110.0
g4
ssS'dDocent_Contig_43889_10'
p3375
(dp3376
F120.0
g4
sF100.0
g3
ssS'dDocent_Contig_12287_55'
p3377
(dp3378
F130.0
g3
sF110.0
g4
ssS'dDocent_Contig_56642_28'
p3379
(dp3380
F130.0
g4
sF110.0
g3
ssS'dDocent_Contig_13298_11'
p3381
(dp3382
F120.0
g3
sF130.0
g4
ssS'dDocent_Contig_5614_16'
p3383
(dp3384
F130.0
g3
sF110.0
g4
ssS'dDocent_Contig_9400_79'
p3385
(dp3386
F130.0
g4
sF110.0
g3
ssS'dDocent_Contig_37926_11'
p3387
(dp3388
F130.0
g3
sF110.0
g4
ssS'dDocent_Contig_18257_10'
p3389
(dp3390
F120.0
g4
sF100.0
g3
ssS'dDocent_Contig_6826_94'
p3391
(dp3392
F120.0
g4
sF100.0
g3
ssS'dDocent_Contig_1688_36'
p3393
(dp3394
F100.0
g3
sF110.0
g4
ssS'dDocent_Contig_40022_11'
p3395
(dp3396
F130.0
g4
sF110.0
g3
ssS'dDocent_Contig_31485_189'
p3397
(dp3398
F130.0
g3
sF100.0
g4
ssS'dDocent_Contig_32055_39'
p3399
(dp3400
F130.0
g4
sF110.0
g3
ssS'dDocent_Contig_4840_22'
p3401
(dp3402
F120.0
g3
sF100.0
g4
ssS'dDocent_Contig_62815_37'
p3403
(dp3404
F120.0
g3
sF130.0
g4
ssS'dDocent_Contig_2441_147'
p3405
(dp3406
F120.0
g3
sF130.0
g4
ssS'dDocent_Contig_26057_8'
p3407
(dp3408
F100.0
g3
sF110.0
g4
ssS'dDocent_Contig_5917_54'
p3409
(dp3410
F130.0
g4
sF110.0
g3
ssS'dDocent_Contig_24443_46'
p3411
(dp3412
F130.0
g4
sF110.0
g3
ssS'dDocent_Contig_4192_32'
p3413
(dp3414
F130.0
g4
sF110.0
g3
ssS'dDocent_Contig_21378_84'
p3415
(dp3416
F120.0
g4
sF100.0
g3
ssS'dDocent_Contig_63946_75'
p3417
(dp3418
F120.0
g3
sF100.0
g4
ssS'dDocent_Contig_33385_19'
p3419
(dp3420
F120.0
g4
sF100.0
g3
ssS'dDocent_Contig_40294_28'
p3421
(dp3422
F130.0
g4
sF110.0
g3
ssS'dDocent_Contig_25727_30'
p3423
(dp3424
F130.0
g3
sF110.0
g4
ssS'dDocent_Contig_16910_30'
p3425
(dp3426
F130.0
g3
sF110.0
g4
ssS'dDocent_Contig_14312_35'
p3427
(dp3428
F120.0
g3
sF130.0
g4
ssS'dDocent_Contig_4420_15'
p3429
(dp3430
F130.0
g3
sF110.0
g4
ssS'dDocent_Contig_5985_31'
p3431
(dp3432
F130.0
g3
sF110.0
g4
ssS'dDocent_Contig_14341_44'
p3433
(dp3434
F120.0
g4
sF100.0
g3
ssS'dDocent_Contig_4166_34'
p3435
(dp3436
F120.0
g4
sF100.0
g3
ssS'dDocent_Contig_56262_64'
p3437
(dp3438
F120.0
g4
sF100.0
g3
ssS'dDocent_Contig_3268_42'
p3439
(dp3440
F120.0
g3
sF100.0
g4
ssS'dDocent_Contig_28662_9'
p3441
(dp3442
F120.0
g4
sF100.0
g3
ssS'dDocent_Contig_24933_114'
p3443
(dp3444
F120.0
g4
sF100.0
g3
ssS'dDocent_Contig_11765_22'
p3445
(dp3446
F120.0
g3
sF100.0
g4
ssS'dDocent_Contig_13124_10'
p3447
(dp3448
F120.0
g4
sF100.0
g3
ssS'dDocent_Contig_6417_37'
p3449
(dp3450
F130.0
g3
sF100.0
g4
ssS'dDocent_Contig_1819_10'
p3451
(dp3452
F120.0
g3
sF100.0
g4
ssS'dDocent_Contig_66408_163'
p3453
(dp3454
F120.0
g4
sF110.0
g3
ssS'dDocent_Contig_24770_46'
p3455
(dp3456
F100.0
g3
sF110.0
g4
ssS'dDocent_Contig_1545_28'
p3457
(dp3458
F130.0
g4
sF110.0
g3
ssS'dDocent_Contig_32106_27'
p3459
(dp3460
F130.0
g4
sF110.0
g3
ssS'dDocent_Contig_3874_69'
p3461
(dp3462
F120.0
g3
sF110.0
g4
ssS'dDocent_Contig_50686_12'
p3463
(dp3464
F130.0
g4
sF110.0
g3
ssS'dDocent_Contig_77217_13'
p3465
(dp3466
F120.0
g3
sF130.0
g4
ssS'dDocent_Contig_22666_9'
p3467
(dp3468
F120.0
g4
sF100.0
g3
ssS'dDocent_Contig_20158_7'
p3469
(dp3470
F120.0
g3
sF100.0
g4
ssS'dDocent_Contig_40086_43'
p3471
(dp3472
F120.0
g4
sF100.0
g3
ssS'dDocent_Contig_18542_48'
p3473
(dp3474
F130.0
g4
sF110.0
g3
ssS'dDocent_Contig_32777_20'
p3475
(dp3476
F120.0
g4
sF100.0
g3
ssS'dDocent_Contig_14961_9'
p3477
(dp3478
F120.0
g4
sF100.0
g3
ssS'dDocent_Contig_54139_20'
p3479
(dp3480
F130.0
g4
sF110.0
g3
ssS'dDocent_Contig_9304_37'
p3481
(dp3482
F120.0
g4
sF100.0
g3
ssS'dDocent_Contig_18771_30'
p3483
(dp3484
F130.0
g4
sF110.0
g3
ssS'dDocent_Contig_47671_93'
p3485
(dp3486
F120.0
g3
sF100.0
g4
ssS'dDocent_Contig_38280_13'
p3487
(dp3488
F130.0
g3
sF110.0
g4
ssS'dDocent_Contig_22893_25'
p3489
(dp3490
F100.0
g4
sF110.0
g3
ssS'dDocent_Contig_10754_21'
p3491
(dp3492
F120.0
g3
sF100.0
g4
ssS'dDocent_Contig_23395_12'
p3493
(dp3494
F120.0
g4
sF110.0
g3
ssS'dDocent_Contig_20123_19'
p3495
(dp3496
F120.0
g4
sF100.0
g3
ssS'dDocent_Contig_33413_55'
p3497
(dp3498
F120.0
g3
sF100.0
g4
ssS'dDocent_Contig_4855_28'
p3499
(dp3500
F130.0
g4
sF110.0
g3
ssS'dDocent_Contig_32418_59'
p3501
(dp3502
F120.0
g3
sF100.0
g4
ssS'dDocent_Contig_14279_10'
p3503
(dp3504
F130.0
g3
sF110.0
g4
ssS'dDocent_Contig_17149_23'
p3505
(dp3506
F130.0
g4
sF110.0
g3
ssS'dDocent_Contig_10603_20'
p3507
(dp3508
F100.0
g3
sF110.0
g4
ssS'dDocent_Contig_25231_26'
p3509
(dp3510
F130.0
g3
sF110.0
g4
ssS'dDocent_Contig_46223_62'
p3511
(dp3512
F130.0
g4
sF110.0
g3
ssS'dDocent_Contig_84381_14'
p3513
(dp3514
F120.0
g3
sF100.0
g4
ssS'dDocent_Contig_21330_61'
p3515
(dp3516
F120.0
g3
sF100.0
g4
ssS'dDocent_Contig_20429_19'
p3517
(dp3518
F120.0
g3
sF100.0
g4
ssS'dDocent_Contig_55356_10'
p3519
(dp3520
F120.0
g4
sF100.0
g3
ssS'dDocent_Contig_10349_11'
p3521
(dp3522
F130.0
g4
sF110.0
g3
ssS'dDocent_Contig_3250_19'
p3523
(dp3524
F120.0
g4
sF110.0
g3
ssS'dDocent_Contig_8726_100'
p3525
(dp3526
F130.0
g4
sF110.0
g3
ssS'dDocent_Contig_29960_19'
p3527
(dp3528
F120.0
g3
sF100.0
g4
ssS'dDocent_Contig_6800_39'
p3529
(dp3530
F120.0
g3
sF110.0
g4
ssS'dDocent_Contig_18465_26'
p3531
(dp3532
F130.0
g3
sF110.0
g4
ssS'dDocent_Contig_64492_20'
p3533
(dp3534
F130.0
g3
sF110.0
g4
ssS'dDocent_Contig_80765_22'
p3535
(dp3536
F130.0
g3
sF100.0
g4
ssS'dDocent_Contig_49937_7'
p3537
(dp3538
F130.0
g3
sF110.0
g4
ssS'dDocent_Contig_50369_43'
p3539
(dp3540
F130.0
g4
sF110.0
g3
ssS'dDocent_Contig_28852_59'
p3541
(dp3542
F130.0
g4
sF100.0
g3
ssS'dDocent_Contig_90883_12'
p3543
(dp3544
F130.0
g4
sF110.0
g3
ssS'dDocent_Contig_34233_8'
p3545
(dp3546
F120.0
g3
sF100.0
g4
ssS'dDocent_Contig_2322_31'
p3547
(dp3548
F120.0
g3
sF100.0
g4
ssS'dDocent_Contig_20072_7'
p3549
(dp3550
F130.0
g4
sF110.0
g3
ssS'dDocent_Contig_8249_66'
p3551
(dp3552
F130.0
g4
sF110.0
g3
ssS'dDocent_Contig_24946_8'
p3553
(dp3554
F120.0
g3
sF100.0
g4
ssS'dDocent_Contig_2678_14'
p3555
(dp3556
F130.0
g3
sF110.0
g4
ssS'dDocent_Contig_61784_65'
p3557
(dp3558
F130.0
g3
sF110.0
g4
ssS'dDocent_Contig_27_9'
p3559
(dp3560
F130.0
g4
sF110.0
g3
ssS'dDocent_Contig_50605_26'
p3561
(dp3562
F120.0
g4
sF100.0
g3
ssS'dDocent_Contig_35144_67'
p3563
(dp3564
F120.0
g4
sF100.0
g3
ssS'dDocent_Contig_9385_27'
p3565
(dp3566
F120.0
g4
sF100.0
g3
ssS'dDocent_Contig_27431_52'
p3567
(dp3568
F130.0
g4
sF110.0
g3
ssS'dDocent_Contig_30458_61'
p3569
(dp3570
F120.0
g4
sF100.0
g3
ssS'dDocent_Contig_22098_12'
p3571
(dp3572
F100.0
g3
sF110.0
g4
ssS'dDocent_Contig_1475_107'
p3573
(dp3574
F130.0
g4
sF110.0
g3
ssS'dDocent_Contig_8321_23'
p3575
(dp3576
F100.0
g4
sF110.0
g3
ssS'dDocent_Contig_735_83'
p3577
(dp3578
F130.0
g3
sF110.0
g4
ssS'dDocent_Contig_25683_7'
p3579
(dp3580
F120.0
g3
sF110.0
g4
ssS'dDocent_Contig_11683_79'
p3581
(dp3582
F120.0
g3
sF100.0
g4
ssS'dDocent_Contig_18670_46'
p3583
(dp3584
F130.0
g4
sF110.0
g3
ssS'dDocent_Contig_92485_37'
p3585
(dp3586
F120.0
g4
sF100.0
g3
ssS'dDocent_Contig_74879_92'
p3587
(dp3588
F120.0
g3
sF100.0
g4
ssS'dDocent_Contig_17199_11'
p3589
(dp3590
F130.0
g3
sF110.0
g4
ssS'dDocent_Contig_6571_145'
p3591
(dp3592
F130.0
g4
sF110.0
g3
ssS'dDocent_Contig_61691_49'
p3593
(dp3594
F120.0
g3
sF100.0
g4
ssS'dDocent_Contig_33491_7'
p3595
(dp3596
F130.0
g3
sF110.0
g4
ssS'dDocent_Contig_43123_27'
p3597
(dp3598
F130.0
g4
sF110.0
g3
ssS'dDocent_Contig_18021_14'
p3599
(dp3600
F120.0
g4
sF130.0
g3
ssS'dDocent_Contig_23021_60'
p3601
(dp3602
F120.0
g3
sF100.0
g4
ssS'dDocent_Contig_14461_7'
p3603
(dp3604
F120.0
g3
sF100.0
g4
ssS'dDocent_Contig_14874_33'
p3605
(dp3606
F130.0
g4
sF110.0
g3
ssS'dDocent_Contig_20699_28'
p3607
(dp3608
F120.0
g3
sF100.0
g4
ssS'dDocent_Contig_72205_9'
p3609
(dp3610
F130.0
g4
sF110.0
g3
ssS'dDocent_Contig_7758_7'
p3611
(dp3612
F130.0
g4
sF100.0
g3
ssS'dDocent_Contig_91055_33'
p3613
(dp3614
F120.0
g4
sF100.0
g3
ssS'dDocent_Contig_18706_13'
p3615
(dp3616
F130.0
g3
sF110.0
g4
ssS'dDocent_Contig_46724_35'
p3617
(dp3618
F130.0
g3
sF110.0
g4
ssS'dDocent_Contig_84280_12'
p3619
(dp3620
F120.0
g3
sF100.0
g4
ssS'dDocent_Contig_41237_38'
p3621
(dp3622
F120.0
g4
sF100.0
g3
ssS'dDocent_Contig_13851_93'
p3623
(dp3624
F130.0
g4
sF110.0
g3
ssS'dDocent_Contig_3110_52'
p3625
(dp3626
F130.0
g3
sF110.0
g4
ssS'dDocent_Contig_11617_7'
p3627
(dp3628
F120.0
g3
sF100.0
g4
ssS'dDocent_Contig_1460_38'
p3629
(dp3630
F120.0
g3
sF100.0
g4
ssS'dDocent_Contig_87485_57'
p3631
(dp3632
F130.0
g4
sF110.0
g3
ssS'dDocent_Contig_61258_44'
p3633
(dp3634
F130.0
g4
sF110.0
g3
ssS'dDocent_Contig_2112_7'
p3635
(dp3636
F120.0
g3
sF100.0
g4
ssS'dDocent_Contig_54571_15'
p3637
(dp3638
F120.0
g3
sF100.0
g4
ssS'dDocent_Contig_46723_18'
p3639
(dp3640
F120.0
g3
sF100.0
g4
ssS'dDocent_Contig_49376_36'
p3641
(dp3642
F130.0
g4
sF110.0
g3
ssS'dDocent_Contig_40440_12'
p3643
(dp3644
F100.0
g3
sF110.0
g4
ssS'dDocent_Contig_36879_9'
p3645
(dp3646
F130.0
g3
sF110.0
g4
ssS'dDocent_Contig_21266_66'
p3647
(dp3648
F130.0
g4
sF110.0
g3
ssS'dDocent_Contig_58576_23'
p3649
(dp3650
F130.0
g3
sF110.0
g4
ssS'dDocent_Contig_15324_25'
p3651
(dp3652
F130.0
g4
sF110.0
g3
ssS'dDocent_Contig_77351_60'
p3653
(dp3654
F130.0
g3
sF100.0
g4
ssS'dDocent_Contig_18225_48'
p3655
(dp3656
F120.0
g3
sF100.0
g4
ssS'dDocent_Contig_7869_144'
p3657
(dp3658
F130.0
g4
sF110.0
g3
ssS'dDocent_Contig_33609_95'
p3659
(dp3660
F120.0
g3
sF100.0
g4
ssS'dDocent_Contig_9490_69'
p3661
(dp3662
F120.0
g3
sF100.0
g4
ssS'dDocent_Contig_10924_9'
p3663
(dp3664
F130.0
g4
sF110.0
g3
ssS'dDocent_Contig_42570_19'
p3665
(dp3666
F120.0
g4
sF100.0
g3
ssS'dDocent_Contig_7653_16'
p3667
(dp3668
F120.0
g4
sF100.0
g3
ssS'dDocent_Contig_49651_29'
p3669
(dp3670
F120.0
g3
sF100.0
g4
ssS'dDocent_Contig_13050_24'
p3671
(dp3672
F120.0
g3
sF130.0
g4
ssS'dDocent_Contig_17438_36'
p3673
(dp3674
F120.0
g4
sF100.0
g3
ssS'dDocent_Contig_6435_11'
p3675
(dp3676
F130.0
g3
sF110.0
g4
ssS'dDocent_Contig_41891_28'
p3677
(dp3678
F120.0
g3
sF100.0
g4
ssS'dDocent_Contig_27159_39'
p3679
(dp3680
F130.0
g4
sF110.0
g3
ssS'dDocent_Contig_70910_7'
p3681
(dp3682
F120.0
g3
sF100.0
g4
ssS'dDocent_Contig_929_12'
p3683
(dp3684
F130.0
g3
sF110.0
g4
ssS'dDocent_Contig_13672_94'
p3685
(dp3686
F130.0
g3
sF110.0
g4
ssS'dDocent_Contig_34944_43'
p3687
(dp3688
F130.0
g4
sF110.0
g3
ssS'dDocent_Contig_17509_9'
p3689
(dp3690
F130.0
g4
sF110.0
g3
ssS'dDocent_Contig_1117_42'
p3691
(dp3692
F130.0
g3
sF110.0
g4
ssS'dDocent_Contig_21217_31'
p3693
(dp3694
F120.0
g3
sF110.0
g4
ssS'dDocent_Contig_51409_25'
p3695
(dp3696
F130.0
g3
sF110.0
g4
ssS'dDocent_Contig_24998_40'
p3697
(dp3698
F130.0
g3
sF110.0
g4
ssS'dDocent_Contig_27580_42'
p3699
(dp3700
F130.0
g4
sF110.0
g3
ssS'dDocent_Contig_1344_70'
p3701
(dp3702
F130.0
g3
sF110.0
g4
ssS'dDocent_Contig_7194_22'
p3703
(dp3704
F130.0
g3
sF110.0
g4
ssS'dDocent_Contig_2287_36'
p3705
(dp3706
F130.0
g3
sF110.0
g4
ssS'dDocent_Contig_79931_36'
p3707
(dp3708
F130.0
g3
sF110.0
g4
ssS'dDocent_Contig_22644_21'
p3709
(dp3710
F130.0
g3
sF110.0
g4
ssS'dDocent_Contig_18953_101'
p3711
(dp3712
F130.0
g3
sF110.0
g4
ssS'dDocent_Contig_21570_15'
p3713
(dp3714
F130.0
g3
sF110.0
g4
ssS'dDocent_Contig_12835_34'
p3715
(dp3716
F120.0
g4
sF100.0
g3
ssS'dDocent_Contig_31225_31'
p3717
(dp3718
F130.0
g4
sF110.0
g3
ssS'dDocent_Contig_47256_61'
p3719
(dp3720
F120.0
g3
sF110.0
g4
ssS'dDocent_Contig_3556_22'
p3721
(dp3722
F120.0
g4
sF100.0
g3
ssS'dDocent_Contig_30945_24'
p3723
(dp3724
F120.0
g4
sF100.0
g3
ssS'dDocent_Contig_75661_30'
p3725
(dp3726
F130.0
g3
sF110.0
g4
ssS'dDocent_Contig_34108_87'
p3727
(dp3728
F120.0
g4
sF100.0
g3
ssS'dDocent_Contig_18043_20'
p3729
(dp3730
F130.0
g3
sF110.0
g4
ssS'dDocent_Contig_28573_41'
p3731
(dp3732
F130.0
g4
sF100.0
g3
ssS'dDocent_Contig_29325_59'
p3733
(dp3734
F100.0
g4
sF110.0
g3
ssS'dDocent_Contig_62700_26'
p3735
(dp3736
F120.0
g3
sF100.0
g4
ssS'dDocent_Contig_61662_39'
p3737
(dp3738
F130.0
g4
sF110.0
g3
ssS'dDocent_Contig_83218_32'
p3739
(dp3740
F120.0
g3
sF100.0
g4
ssS'dDocent_Contig_9405_21'
p3741
(dp3742
F130.0
g4
sF110.0
g3
ssS'dDocent_Contig_6448_12'
p3743
(dp3744
F120.0
g3
sF100.0
g4
ssS'dDocent_Contig_24197_21'
p3745
(dp3746
F120.0
g4
sF100.0
g3
ssS'dDocent_Contig_6716_57'
p3747
(dp3748
F120.0
g4
sF110.0
g3
ssS'dDocent_Contig_15666_29'
p3749
(dp3750
F130.0
g4
sF110.0
g3
ssS'dDocent_Contig_857_34'
p3751
(dp3752
F130.0
g3
sF110.0
g4
ssS'dDocent_Contig_40257_65'
p3753
(dp3754
F120.0
g3
sF100.0
g4
ssS'dDocent_Contig_18516_110'
p3755
(dp3756
F130.0
g3
sF100.0
g4
ssS'dDocent_Contig_9664_47'
p3757
(dp3758
F130.0
g3
sF100.0
g4
ssS'dDocent_Contig_21008_27'
p3759
(dp3760
F120.0
g3
sF130.0
g4
ssS'dDocent_Contig_23456_36'
p3761
(dp3762
F130.0
g4
sF110.0
g3
ssS'dDocent_Contig_28207_34'
p3763
(dp3764
F130.0
g3
sF110.0
g4
ssS'dDocent_Contig_4502_67'
p3765
(dp3766
F130.0
g3
sF110.0
g4
ssS'dDocent_Contig_30086_78'
p3767
(dp3768
F130.0
g4
sF110.0
g3
ssS'dDocent_Contig_27441_43'
p3769
(dp3770
F130.0
g3
sF100.0
g4
ssS'dDocent_Contig_78629_248'
p3771
(dp3772
F130.0
g3
sF110.0
g4
ssS'dDocent_Contig_9955_12'
p3773
(dp3774
F130.0
g4
sF110.0
g3
ssS'dDocent_Contig_67454_17'
p3775
(dp3776
F130.0
g4
sF110.0
g3
ssS'dDocent_Contig_42587_38'
p3777
(dp3778
F130.0
g4
sF110.0
g3
ssS'dDocent_Contig_33912_27'
p3779
(dp3780
F120.0
g4
sF130.0
g3
ssS'dDocent_Contig_33363_16'
p3781
(dp3782
F130.0
g4
sF110.0
g3
ssS'dDocent_Contig_67340_36'
p3783
(dp3784
F130.0
g3
sF110.0
g4
ssS'dDocent_Contig_2124_15'
p3785
(dp3786
F120.0
g3
sF100.0
g4
ssS'dDocent_Contig_22295_13'
p3787
(dp3788
F120.0
g3
sF100.0
g4
ssS'dDocent_Contig_15979_9'
p3789
(dp3790
F120.0
g3
sF110.0
g4
ssS'dDocent_Contig_82205_11'
p3791
(dp3792
F120.0
g4
sF110.0
g3
ssS'dDocent_Contig_46931_82'
p3793
(dp3794
F120.0
g4
sF100.0
g3
ssS'dDocent_Contig_29121_58'
p3795
(dp3796
F130.0
g3
sF110.0
g4
ssS'dDocent_Contig_7913_20'
p3797
(dp3798
F130.0
g4
sF110.0
g3
ssS'dDocent_Contig_780_65'
p3799
(dp3800
F130.0
g4
sF110.0
g3
ssS'dDocent_Contig_6316_11'
p3801
(dp3802
F120.0
g3
sF100.0
g4
ssS'dDocent_Contig_60439_57'
p3803
(dp3804
F120.0
g4
sF100.0
g3
ssS'dDocent_Contig_7133_157'
p3805
(dp3806
F120.0
g3
sF100.0
g4
ssS'dDocent_Contig_17944_13'
p3807
(dp3808
F120.0
g3
sF100.0
g4
ssS'dDocent_Contig_77468_11'
p3809
(dp3810
F120.0
g3
sF100.0
g4
ssS'dDocent_Contig_92618_35'
p3811
(dp3812
F130.0
g4
sF110.0
g3
ssS'dDocent_Contig_24580_70'
p3813
(dp3814
F130.0
g4
sF100.0
g3
ssS'dDocent_Contig_31743_18'
p3815
(dp3816
F130.0
g4
sF110.0
g3
ssS'dDocent_Contig_28147_9'
p3817
(dp3818
F130.0
g3
sF110.0
g4
ssS'dDocent_Contig_25518_62'
p3819
(dp3820
F120.0
g4
sF100.0
g3
ssS'dDocent_Contig_6548_37'
p3821
(dp3822
F130.0
g4
sF110.0
g3
ssS'dDocent_Contig_4626_42'
p3823
(dp3824
F120.0
g4
sF100.0
g3
ssS'dDocent_Contig_40791_41'
p3825
(dp3826
F100.0
g4
sF110.0
g3
ssS'dDocent_Contig_24006_9'
p3827
(dp3828
F130.0
g3
sF110.0
g4
ssS'dDocent_Contig_20487_9'
p3829
(dp3830
F130.0
g4
sF110.0
g3
ssS'dDocent_Contig_48643_16'
p3831
(dp3832
F120.0
g3
sF100.0
g4
ssS'dDocent_Contig_35056_13'
p3833
(dp3834
F130.0
g4
sF110.0
g3
ssS'dDocent_Contig_75058_13'
p3835
(dp3836
F130.0
g3
sF110.0
g4
ssS'dDocent_Contig_40665_9'
p3837
(dp3838
F130.0
g3
sF110.0
g4
ssS'dDocent_Contig_76972_43'
p3839
(dp3840
F130.0
g4
sF110.0
g3
ssS'dDocent_Contig_39901_48'
p3841
(dp3842
F130.0
g4
sF110.0
g3
ssS'dDocent_Contig_13202_50'
p3843
(dp3844
F130.0
g4
sF110.0
g3
ssS'dDocent_Contig_21101_18'
p3845
(dp3846
F130.0
g4
sF110.0
g3
ssS'dDocent_Contig_43342_18'
p3847
(dp3848
F130.0
g4
sF110.0
g3
ssS'dDocent_Contig_32260_18'
p3849
(dp3850
F120.0
g4
sF100.0
g3
ssS'dDocent_Contig_33583_50'
p3851
(dp3852
F130.0
g3
sF110.0
g4
ssS'dDocent_Contig_65011_90'
p3853
(dp3854
F100.0
g3
sF110.0
g4
ssS'dDocent_Contig_271_31'
p3855
(dp3856
F130.0
g3
sF110.0
g4
ssS'dDocent_Contig_5226_47'
p3857
(dp3858
F120.0
g3
sF110.0
g4
ssS'dDocent_Contig_1848_17'
p3859
(dp3860
F120.0
g4
sF100.0
g3
ssS'dDocent_Contig_17883_129'
p3861
(dp3862
F120.0
g3
sF100.0
g4
ssS'dDocent_Contig_40250_48'
p3863
(dp3864
F120.0
g3
sF100.0
g4
ssS'dDocent_Contig_39096_56'
p3865
(dp3866
F120.0
g4
sF100.0
g3
ssS'dDocent_Contig_8186_52'
p3867
(dp3868
F120.0
g3
sF100.0
g4
ssS'dDocent_Contig_33021_17'
p3869
(dp3870
F130.0
g3
sF110.0
g4
ssS'dDocent_Contig_34323_42'
p3871
(dp3872
F130.0
g3
sF110.0
g4
ssS'dDocent_Contig_2361_14'
p3873
(dp3874
F120.0
g4
sF110.0
g3
ssS'dDocent_Contig_702_32'
p3875
(dp3876
F130.0
g4
sF110.0
g3
ssS'dDocent_Contig_22007_75'
p3877
(dp3878
F120.0
g4
sF100.0
g3
ssS'dDocent_Contig_15468_38'
p3879
(dp3880
F120.0
g4
sF100.0
g3
ssS'dDocent_Contig_2235_7'
p3881
(dp3882
F130.0
g4
sF110.0
g3
ssS'dDocent_Contig_11424_20'
p3883
(dp3884
F130.0
g3
sF110.0
g4
ssS'dDocent_Contig_17718_37'
p3885
(dp3886
F120.0
g4
sF100.0
g3
ssS'dDocent_Contig_89150_54'
p3887
(dp3888
F130.0
g3
sF100.0
g4
ssS'dDocent_Contig_61717_54'
p3889
(dp3890
F120.0
g4
sF110.0
g3
ssS'dDocent_Contig_6870_43'
p3891
(dp3892
F130.0
g4
sF110.0
g3
ssS'dDocent_Contig_34017_8'
p3893
(dp3894
F120.0
g4
sF100.0
g3
ssS'dDocent_Contig_75662_11'
p3895
(dp3896
F130.0
g4
sF110.0
g3
ssS'dDocent_Contig_16436_38'
p3897
(dp3898
F120.0
g3
sF100.0
g4
ssS'dDocent_Contig_19425_9'
p3899
(dp3900
F120.0
g3
sF100.0
g4
ssS'dDocent_Contig_12851_7'
p3901
(dp3902
F100.0
g4
sF110.0
g3
ssS'dDocent_Contig_71193_289'
p3903
(dp3904
F120.0
g4
sF110.0
g3
ssS'dDocent_Contig_16650_14'
p3905
(dp3906
F130.0
g3
sF110.0
g4
ssS'dDocent_Contig_53111_25'
p3907
(dp3908
F130.0
g3
sF110.0
g4
ssS'dDocent_Contig_30375_60'
p3909
(dp3910
F120.0
g3
sF100.0
g4
ssS'dDocent_Contig_13844_28'
p3911
(dp3912
F130.0
g3
sF110.0
g4
ssS'dDocent_Contig_19609_55'
p3913
(dp3914
F120.0
g4
sF100.0
g3
ssS'dDocent_Contig_77153_27'
p3915
(dp3916
F120.0
g4
sF100.0
g3
ssS'dDocent_Contig_62359_41'
p3917
(dp3918
F130.0
g4
sF110.0
g3
ssS'dDocent_Contig_62424_47'
p3919
(dp3920
F130.0
g3
sF110.0
g4
ssS'dDocent_Contig_7785_24'
p3921
(dp3922
F130.0
g4
sF110.0
g3
ssS'dDocent_Contig_28991_97'
p3923
(dp3924
F120.0
g3
sF130.0
g4
ssS'dDocent_Contig_16059_10'
p3925
(dp3926
F120.0
g3
sF130.0
g4
ssS'dDocent_Contig_57849_16'
p3927
(dp3928
F120.0
g4
sF100.0
g3
ssS'dDocent_Contig_15467_68'
p3929
(dp3930
F130.0
g3
sF110.0
g4
ssS'dDocent_Contig_23996_10'
p3931
(dp3932
F120.0
g4
sF100.0
g3
ssS'dDocent_Contig_57949_76'
p3933
(dp3934
F130.0
g3
sF110.0
g4
ssS'dDocent_Contig_5694_19'
p3935
(dp3936
F130.0
g4
sF110.0
g3
ssS'dDocent_Contig_31338_29'
p3937
(dp3938
F120.0
g4
sF100.0
g3
ssS'dDocent_Contig_9485_29'
p3939
(dp3940
F120.0
g3
sF100.0
g4
ssS'dDocent_Contig_36026_13'
p3941
(dp3942
F130.0
g3
sF110.0
g4
ssS'dDocent_Contig_19251_18'
p3943
(dp3944
F120.0
g3
sF100.0
g4
ssS'dDocent_Contig_2003_24'
p3945
(dp3946
F100.0
g3
sF110.0
g4
ssS'dDocent_Contig_26007_8'
p3947
(dp3948
F130.0
g4
sF110.0
g3
ssS'dDocent_Contig_50363_45'
p3949
(dp3950
F120.0
g3
sF100.0
g4
ssS'dDocent_Contig_5838_28'
p3951
(dp3952
F130.0
g4
sF100.0
g3
ssS'dDocent_Contig_29791_156'
p3953
(dp3954
F120.0
g3
sF100.0
g4
ssS'dDocent_Contig_13555_25'
p3955
(dp3956
F120.0
g3
sF100.0
g4
ssS'dDocent_Contig_21800_30'
p3957
(dp3958
F130.0
g3
sF110.0
g4
ssS'dDocent_Contig_31226_19'
p3959
(dp3960
F120.0
g3
sF130.0
g4
ssS'dDocent_Contig_22400_9'
p3961
(dp3962
F120.0
g3
sF100.0
g4
ssS'dDocent_Contig_32709_89'
p3963
(dp3964
F120.0
g4
sF100.0
g3
ssS'dDocent_Contig_42539_19'
p3965
(dp3966
F120.0
g4
sF100.0
g3
ssS'dDocent_Contig_57155_35'
p3967
(dp3968
F130.0
g4
sF110.0
g3
ssS'dDocent_Contig_34436_10'
p3969
(dp3970
F120.0
g3
sF100.0
g4
ssS'dDocent_Contig_26722_7'
p3971
(dp3972
F120.0
g3
sF100.0
g4
ssS'dDocent_Contig_26003_7'
p3973
(dp3974
F130.0
g4
sF110.0
g3
ssS'dDocent_Contig_46936_60'
p3975
(dp3976
F120.0
g3
sF100.0
g4
ssS'dDocent_Contig_71272_46'
p3977
(dp3978
F120.0
g4
sF100.0
g3
ssS'dDocent_Contig_80912_10'
p3979
(dp3980
F120.0
g3
sF100.0
g4
ssS'dDocent_Contig_60162_29'
p3981
(dp3982
F120.0
g4
sF100.0
g3
ssS'dDocent_Contig_18836_10'
p3983
(dp3984
F120.0
g3
sF100.0
g4
ssS'dDocent_Contig_51175_13'
p3985
(dp3986
F130.0
g4
sF110.0
g3
ssS'dDocent_Contig_72988_15'
p3987
(dp3988
F100.0
g3
sF110.0
g4
ssS'dDocent_Contig_8606_13'
p3989
(dp3990
F100.0
g4
sF110.0
g3
ssS'dDocent_Contig_77029_96'
p3991
(dp3992
F130.0
g3
sF110.0
g4
ssS'dDocent_Contig_90082_11'
p3993
(dp3994
F120.0
g3
sF100.0
g4
ssS'dDocent_Contig_3847_7'
p3995
(dp3996
F130.0
g3
sF110.0
g4
ssS'dDocent_Contig_38767_32'
p3997
(dp3998
F130.0
g4
sF100.0
g3
ssS'dDocent_Contig_13774_39'
p3999
(dp4000
F130.0
g3
sF100.0
g4
ssS'dDocent_Contig_5_14'
p4001
(dp4002
F130.0
g4
sF110.0
g3
ssS'dDocent_Contig_19774_96'
p4003
(dp4004
F120.0
g4
sF100.0
g3
ssS'dDocent_Contig_52955_11'
p4005
(dp4006
F130.0
g4
sF110.0
g3
ssS'dDocent_Contig_12915_14'
p4007
(dp4008
F130.0
g4
sF110.0
g3
ssS'dDocent_Contig_61046_25'
p4009
(dp4010
F120.0
g3
sF130.0
g4
ssS'dDocent_Contig_28808_9'
p4011
(dp4012
F130.0
g4
sF110.0
g3
ssS'dDocent_Contig_24665_79'
p4013
(dp4014
F130.0
g4
sF100.0
g3
ssS'dDocent_Contig_50013_58'
p4015
(dp4016
F130.0
g3
sF110.0
g4
ssS'dDocent_Contig_10507_73'
p4017
(dp4018
F130.0
g3
sF110.0
g4
ssS'dDocent_Contig_18874_8'
p4019
(dp4020
F130.0
g3
sF110.0
g4
ssS'dDocent_Contig_50132_26'
p4021
(dp4022
F130.0
g4
sF110.0
g3
ssS'dDocent_Contig_79492_12'
p4023
(dp4024
F130.0
g3
sF110.0
g4
ssS'dDocent_Contig_42804_58'
p4025
(dp4026
F120.0
g4
sF100.0
g3
ssS'dDocent_Contig_4801_17'
p4027
(dp4028
F130.0
g3
sF110.0
g4
ssS'dDocent_Contig_9252_76'
p4029
(dp4030
F130.0
g4
sF100.0
g3
ssS'dDocent_Contig_4398_28'
p4031
(dp4032
F120.0
g4
sF130.0
g3
ssS'dDocent_Contig_13935_72'
p4033
(dp4034
F130.0
g4
sF110.0
g3
ssS'dDocent_Contig_42209_35'
p4035
(dp4036
F130.0
g4
sF110.0
g3
ssS'dDocent_Contig_22464_34'
p4037
(dp4038
F120.0
g4
sF100.0
g3
ssS'dDocent_Contig_7406_26'
p4039
(dp4040
F130.0
g3
sF110.0
g4
ssS'dDocent_Contig_11063_37'
p4041
(dp4042
F100.0
g3
sF110.0
g4
ssS'dDocent_Contig_79426_145'
p4043
(dp4044
F120.0
g4
sF100.0
g3
ssS'dDocent_Contig_43477_47'
p4045
(dp4046
F130.0
g4
sF100.0
g3
ssS'dDocent_Contig_4705_62'
p4047
(dp4048
F130.0
g4
sF100.0
g3
ssS'dDocent_Contig_13086_29'
p4049
(dp4050
F130.0
g4
sF110.0
g3
ssS'dDocent_Contig_5127_41'
p4051
(dp4052
F130.0
g3
sF110.0
g4
ssS'dDocent_Contig_17752_11'
p4053
(dp4054
F130.0
g3
sF110.0
g4
ssS'dDocent_Contig_31831_14'
p4055
(dp4056
F120.0
g3
sF100.0
g4
ssS'dDocent_Contig_39132_63'
p4057
(dp4058
F130.0
g3
sF110.0
g4
ssS'dDocent_Contig_79160_40'
p4059
(dp4060
F130.0
g4
sF110.0
g3
ssS'dDocent_Contig_47850_20'
p4061
(dp4062
F120.0
g3
sF100.0
g4
ssS'dDocent_Contig_14492_15'
p4063
(dp4064
F120.0
g3
sF100.0
g4
ssS'dDocent_Contig_7033_12'
p4065
(dp4066
F130.0
g4
sF110.0
g3
ssS'dDocent_Contig_658_7'
p4067
(dp4068
F120.0
g3
sF100.0
g4
ssS'dDocent_Contig_66908_61'
p4069
(dp4070
F130.0
g4
sF110.0
g3
ssS'dDocent_Contig_41110_31'
p4071
(dp4072
F120.0
g3
sF100.0
g4
ssS'dDocent_Contig_38677_13'
p4073
(dp4074
F130.0
g4
sF110.0
g3
ssS'dDocent_Contig_8694_13'
p4075
(dp4076
F120.0
g3
sF100.0
g4
ssS'dDocent_Contig_26456_15'
p4077
(dp4078
F130.0
g3
sF110.0
g4
ssS'dDocent_Contig_27485_24'
p4079
(dp4080
F120.0
g4
sF110.0
g3
ssS'dDocent_Contig_55107_54'
p4081
(dp4082
F120.0
g3
sF100.0
g4
ssS'dDocent_Contig_54033_84'
p4083
(dp4084
F130.0
g3
sF110.0
g4
ssS'dDocent_Contig_9284_31'
p4085
(dp4086
F130.0
g4
sF110.0
g3
ssS'dDocent_Contig_20695_96'
p4087
(dp4088
F130.0
g3
sF110.0
g4
ssS'dDocent_Contig_51607_117'
p4089
(dp4090
F130.0
g3
sF110.0
g4
ssS'dDocent_Contig_8327_78'
p4091
(dp4092
F130.0
g4
sF110.0
g3
ssS'dDocent_Contig_50750_41'
p4093
(dp4094
F130.0
g4
sF110.0
g3
ssS'dDocent_Contig_22271_15'
p4095
(dp4096
F130.0
g4
sF110.0
g3
ssS'dDocent_Contig_32602_26'
p4097
(dp4098
F120.0
g3
sF110.0
g4
ssS'dDocent_Contig_51188_26'
p4099
(dp4100
F120.0
g3
sF100.0
g4
ssS'dDocent_Contig_6174_12'
p4101
(dp4102
F130.0
g4
sF110.0
g3
ssS'dDocent_Contig_50276_19'
p4103
(dp4104
F130.0
g3
sF110.0
g4
ssS'dDocent_Contig_14576_57'
p4105
(dp4106
F130.0
g4
sF110.0
g3
ssS'dDocent_Contig_23382_74'
p4107
(dp4108
F120.0
g4
sF100.0
g3
ssS'dDocent_Contig_13930_11'
p4109
(dp4110
F120.0
g3
sF100.0
g4
ssS'dDocent_Contig_15604_12'
p4111
(dp4112
F130.0
g3
sF110.0
g4
ssS'dDocent_Contig_73678_150'
p4113
(dp4114
F130.0
g4
sF110.0
g3
ssS'dDocent_Contig_65838_24'
p4115
(dp4116
F120.0
g3
sF100.0
g4
ssS'dDocent_Contig_2327_15'
p4117
(dp4118
F120.0
g3
sF100.0
g4
ssS'dDocent_Contig_25388_10'
p4119
(dp4120
F130.0
g3
sF110.0
g4
ssS'dDocent_Contig_9947_30'
p4121
(dp4122
F120.0
g4
sF100.0
g3
ssS'dDocent_Contig_72215_32'
p4123
(dp4124
F120.0
g3
sF100.0
g4
ssS'dDocent_Contig_18949_180'
p4125
(dp4126
F130.0
g3
sF100.0
g4
ssS'dDocent_Contig_15707_40'
p4127
(dp4128
F120.0
g3
sF100.0
g4
ssS'dDocent_Contig_8985_28'
p4129
(dp4130
F120.0
g4
sF130.0
g3
ssS'dDocent_Contig_10179_24'
p4131
(dp4132
F130.0
g4
sF110.0
g3
ssS'dDocent_Contig_12785_63'
p4133
(dp4134
F130.0
g3
sF110.0
g4
ssS'dDocent_Contig_44431_32'
p4135
(dp4136
F130.0
g3
sF110.0
g4
ssS'dDocent_Contig_6774_58'
p4137
(dp4138
F120.0
g4
sF100.0
g3
ssS'dDocent_Contig_841_16'
p4139
(dp4140
F120.0
g4
sF100.0
g3
ssS'dDocent_Contig_6522_18'
p4141
(dp4142
F130.0
g4
sF110.0
g3
ssS'dDocent_Contig_92577_51'
p4143
(dp4144
F120.0
g4
sF100.0
g3
ssS'dDocent_Contig_16141_50'
p4145
(dp4146
F130.0
g3
sF110.0
g4
ssS'dDocent_Contig_21460_27'
p4147
(dp4148
F120.0
g3
sF100.0
g4
ssS'dDocent_Contig_9041_24'
p4149
(dp4150
F120.0
g3
sF100.0
g4
ssS'dDocent_Contig_34531_71'
p4151
(dp4152
F130.0
g4
sF110.0
g3
ssS'dDocent_Contig_43971_23'
p4153
(dp4154
F120.0
g4
sF100.0
g3
ssS'dDocent_Contig_39332_48'
p4155
(dp4156
F120.0
g4
sF110.0
g3
ssS'dDocent_Contig_77723_27'
p4157
(dp4158
F120.0
g4
sF130.0
g3
ssS'dDocent_Contig_5401_12'
p4159
(dp4160
F120.0
g4
sF100.0
g3
ssS'dDocent_Contig_12440_13'
p4161
(dp4162
F100.0
g4
sF110.0
g3
ssS'dDocent_Contig_8665_8'
p4163
(dp4164
F120.0
g4
sF100.0
g3
ssS'dDocent_Contig_33557_125'
p4165
(dp4166
F120.0
g4
sF100.0
g3
ssS'dDocent_Contig_47874_114'
p4167
(dp4168
F130.0
g3
sF110.0
g4
ssS'dDocent_Contig_41794_80'
p4169
(dp4170
F130.0
g4
sF110.0
g3
ssS'dDocent_Contig_18839_29'
p4171
(dp4172
F130.0
g3
sF110.0
g4
ssS'dDocent_Contig_6162_28'
p4173
(dp4174
F120.0
g3
sF100.0
g4
ssS'dDocent_Contig_10314_39'
p4175
(dp4176
F130.0
g3
sF100.0
g4
ssS'dDocent_Contig_10200_7'
p4177
(dp4178
F130.0
g4
sF110.0
g3
ssS'dDocent_Contig_48941_59'
p4179
(dp4180
F130.0
g3
sF110.0
g4
ssS'dDocent_Contig_18064_7'
p4181
(dp4182
F120.0
g3
sF100.0
g4
ssS'dDocent_Contig_4628_49'
p4183
(dp4184
F130.0
g3
sF110.0
g4
ssS'dDocent_Contig_847_26'
p4185
(dp4186
F120.0
g4
sF100.0
g3
ssS'dDocent_Contig_22776_75'
p4187
(dp4188
F100.0
g4
sF110.0
g3
ssS'dDocent_Contig_30976_44'
p4189
(dp4190
F130.0
g4
sF110.0
g3
ssS'dDocent_Contig_15638_14'
p4191
(dp4192
F130.0
g4
sF110.0
g3
ssS'dDocent_Contig_15313_52'
p4193
(dp4194
F120.0
g4
sF130.0
g3
ssS'dDocent_Contig_24720_19'
p4195
(dp4196
F120.0
g4
sF130.0
g3
ssS'dDocent_Contig_11747_28'
p4197
(dp4198
F130.0
g3
sF110.0
g4
ssS'dDocent_Contig_664_16'
p4199
(dp4200
F130.0
g3
sF110.0
g4
ssS'dDocent_Contig_24001_14'
p4201
(dp4202
F120.0
g3
sF100.0
g4
ssS'dDocent_Contig_4687_99'
p4203
(dp4204
F120.0
g3
sF100.0
g4
ssS'dDocent_Contig_31216_40'
p4205
(dp4206
F120.0
g4
sF100.0
g3
ssS'dDocent_Contig_41_82'
p4207
(dp4208
F120.0
g3
sF100.0
g4
ssS'dDocent_Contig_11441_43'
p4209
(dp4210
F130.0
g3
sF110.0
g4
ssS'dDocent_Contig_8909_144'
p4211
(dp4212
F120.0
g3
sF130.0
g4
ssS'dDocent_Contig_109_48'
p4213
(dp4214
F120.0
g3
sF100.0
g4
ssS'dDocent_Contig_12086_23'
p4215
(dp4216
F130.0
g3
sF110.0
g4
ssS'dDocent_Contig_9355_12'
p4217
(dp4218
F120.0
g4
sF100.0
g3
ssS'dDocent_Contig_5288_24'
p4219
(dp4220
F100.0
g3
sF110.0
g4
ssS'dDocent_Contig_23892_15'
p4221
(dp4222
F120.0
g4
sF100.0
g3
ssS'dDocent_Contig_89168_10'
p4223
(dp4224
F120.0
g3
sF100.0
g4
ssS'dDocent_Contig_13385_101'
p4225
(dp4226
F120.0
g4
sF100.0
g3
ssS'dDocent_Contig_12757_31'
p4227
(dp4228
F120.0
g3
sF110.0
g4
ssS'dDocent_Contig_458_67'
p4229
(dp4230
F130.0
g3
sF110.0
g4
ssS'dDocent_Contig_27157_15'
p4231
(dp4232
F120.0
g4
sF100.0
g3
ssS'dDocent_Contig_34920_9'
p4233
(dp4234
F120.0
g4
sF100.0
g3
ssS'dDocent_Contig_19048_64'
p4235
(dp4236
F120.0
g3
sF100.0
g4
ssS'dDocent_Contig_5006_28'
p4237
(dp4238
F120.0
g3
sF100.0
g4
ssS'dDocent_Contig_34500_21'
p4239
(dp4240
F130.0
g3
sF110.0
g4
ssS'dDocent_Contig_11999_54'
p4241
(dp4242
F100.0
g4
sF110.0
g3
ssS'dDocent_Contig_25795_65'
p4243
(dp4244
F120.0
g3
sF100.0
g4
ssS'dDocent_Contig_37308_34'
p4245
(dp4246
F130.0
g3
sF100.0
g4
ssS'dDocent_Contig_20043_14'
p4247
(dp4248
F120.0
g3
sF110.0
g4
ssS'dDocent_Contig_25462_39'
p4249
(dp4250
F130.0
g3
sF110.0
g4
ssS'dDocent_Contig_12431_85'
p4251
(dp4252
F120.0
g4
sF100.0
g3
ssS'dDocent_Contig_16108_16'
p4253
(dp4254
F120.0
g4
sF100.0
g3
ssS'dDocent_Contig_10064_37'
p4255
(dp4256
F130.0
g4
sF110.0
g3
ssS'dDocent_Contig_46195_20'
p4257
(dp4258
F120.0
g4
sF110.0
g3
ssS'dDocent_Contig_432_58'
p4259
(dp4260
F100.0
g4
sF110.0
g3
ssS'dDocent_Contig_5524_26'
p4261
(dp4262
F120.0
g3
sF100.0
g4
ssS'dDocent_Contig_50983_7'
p4263
(dp4264
F130.0
g4
sF110.0
g3
ssS'dDocent_Contig_83012_7'
p4265
(dp4266
F120.0
g3
sF100.0
g4
ssS'dDocent_Contig_10954_8'
p4267
(dp4268
F120.0
g3
sF100.0
g4
ssS'dDocent_Contig_4908_22'
p4269
(dp4270
F130.0
g3
sF110.0
g4
ssS'dDocent_Contig_5576_10'
p4271
(dp4272
F120.0
g3
sF100.0
g4
ssS'dDocent_Contig_32101_30'
p4273
(dp4274
F120.0
g3
sF130.0
g4
ssS'dDocent_Contig_75312_14'
p4275
(dp4276
F100.0
g3
sF110.0
g4
ssS'dDocent_Contig_20642_10'
p4277
(dp4278
F120.0
g3
sF100.0
g4
ssS'dDocent_Contig_6353_33'
p4279
(dp4280
F130.0
g4
sF110.0
g3
ssS'dDocent_Contig_41100_29'
p4281
(dp4282
F130.0
g3
sF110.0
g4
ssS'dDocent_Contig_74382_28'
p4283
(dp4284
F130.0
g4
sF100.0
g3
ssS'dDocent_Contig_55112_23'
p4285
(dp4286
F130.0
g3
sF110.0
g4
ssS'dDocent_Contig_24723_23'
p4287
(dp4288
F100.0
g3
sF110.0
g4
ssS'dDocent_Contig_28361_20'
p4289
(dp4290
F120.0
g3
sF100.0
g4
ssS'dDocent_Contig_29430_14'
p4291
(dp4292
F120.0
g3
sF130.0
g4
ssS'dDocent_Contig_35977_16'
p4293
(dp4294
F130.0
g3
sF110.0
g4
ssS'dDocent_Contig_11707_150'
p4295
(dp4296
F130.0
g4
sF110.0
g3
ssS'dDocent_Contig_24465_58'
p4297
(dp4298
F130.0
g3
sF110.0
g4
ssS'dDocent_Contig_83704_12'
p4299
(dp4300
F130.0
g3
sF110.0
g4
ssS'dDocent_Contig_99_9'
p4301
(dp4302
F130.0
g4
sF110.0
g3
ssS'dDocent_Contig_41199_30'
p4303
(dp4304
F130.0
g4
sF110.0
g3
ssS'dDocent_Contig_338_148'
p4305
(dp4306
F130.0
g4
sF110.0
g3
ssS'dDocent_Contig_6489_68'
p4307
(dp4308
F100.0
g3
sF110.0
g4
ssS'dDocent_Contig_40375_34'
p4309
(dp4310
F130.0
g3
sF110.0
g4
ssS'dDocent_Contig_3593_12'
p4311
(dp4312
F130.0
g4
sF110.0
g3
ssS'dDocent_Contig_42481_17'
p4313
(dp4314
F120.0
g3
sF100.0
g4
ssS'dDocent_Contig_11718_10'
p4315
(dp4316
F130.0
g3
sF110.0
g4
ssS'dDocent_Contig_33908_93'
p4317
(dp4318
F130.0
g4
sF110.0
g3
ssS'dDocent_Contig_29964_19'
p4319
(dp4320
F120.0
g3
sF100.0
g4
ssS'dDocent_Contig_250_37'
p4321
(dp4322
F130.0
g4
sF110.0
g3
ssS'dDocent_Contig_270_42'
p4323
(dp4324
F100.0
g3
sF110.0
g4
ssS'dDocent_Contig_93361_23'
p4325
(dp4326
F130.0
g4
sF110.0
g3
ssS'dDocent_Contig_74645_49'
p4327
(dp4328
F100.0
g3
sF110.0
g4
ssS'dDocent_Contig_28720_25'
p4329
(dp4330
F120.0
g3
sF100.0
g4
ssS'dDocent_Contig_8727_49'
p4331
(dp4332
F120.0
g3
sF110.0
g4
ssS'dDocent_Contig_35500_65'
p4333
(dp4334
F120.0
g3
sF100.0
g4
ssS'dDocent_Contig_88008_32'
p4335
(dp4336
F130.0
g4
sF110.0
g3
ssS'dDocent_Contig_38863_71'
p4337
(dp4338
F130.0
g3
sF110.0
g4
ssS'dDocent_Contig_78975_9'
p4339
(dp4340
F120.0
g3
sF100.0
g4
ssS'dDocent_Contig_52668_42'
p4341
(dp4342
F120.0
g4
sF100.0
g3
ssS'dDocent_Contig_82917_85'
p4343
(dp4344
F120.0
g4
sF100.0
g3
ssS'dDocent_Contig_60421_39'
p4345
(dp4346
F120.0
g3
sF100.0
g4
ssS'dDocent_Contig_9338_59'
p4347
(dp4348
F120.0
g4
sF100.0
g3
ssS'dDocent_Contig_55665_8'
p4349
(dp4350
F120.0
g4
sF100.0
g3
ssS'dDocent_Contig_8287_38'
p4351
(dp4352
F130.0
g3
sF100.0
g4
ssS'dDocent_Contig_5125_36'
p4353
(dp4354
F120.0
g4
sF100.0
g3
ssS'dDocent_Contig_5993_53'
p4355
(dp4356
F130.0
g3
sF100.0
g4
ssS'dDocent_Contig_24218_45'
p4357
(dp4358
F130.0
g3
sF100.0
g4
ssS'dDocent_Contig_62012_17'
p4359
(dp4360
F130.0
g4
sF110.0
g3
ssS'dDocent_Contig_44285_18'
p4361
(dp4362
F120.0
g4
sF130.0
g3
ssS'dDocent_Contig_71928_43'
p4363
(dp4364
F120.0
g4
sF100.0
g3
ssS'dDocent_Contig_1724_47'
p4365
(dp4366
F120.0
g4
sF130.0
g3
ssS'dDocent_Contig_4209_67'
p4367
(dp4368
F120.0
g4
sF100.0
g3
ssS'dDocent_Contig_28238_27'
p4369
(dp4370
F120.0
g4
sF100.0
g3
ssS'dDocent_Contig_28214_8'
p4371
(dp4372
F120.0
g4
sF100.0
g3
ssS'dDocent_Contig_6349_65'
p4373
(dp4374
F120.0
g4
sF100.0
g3
ssS'dDocent_Contig_76905_9'
p4375
(dp4376
F120.0
g3
sF130.0
g4
ssS'dDocent_Contig_17048_35'
p4377
(dp4378
F130.0
g4
sF110.0
g3
ssS'dDocent_Contig_12495_22'
p4379
(dp4380
F120.0
g3
sF110.0
g4
ssS'dDocent_Contig_3484_44'
p4381
(dp4382
F120.0
g3
sF110.0
g4
ssS'dDocent_Contig_26428_31'
p4383
(dp4384
F130.0
g3
sF110.0
g4
ssS'dDocent_Contig_11006_21'
p4385
(dp4386
F120.0
g4
sF100.0
g3
ssS'dDocent_Contig_30385_77'
p4387
(dp4388
F120.0
g3
sF100.0
g4
ssS'dDocent_Contig_28627_54'
p4389
(dp4390
F120.0
g3
sF100.0
g4
ssS'dDocent_Contig_28283_46'
p4391
(dp4392
F130.0
g3
sF110.0
g4
ssS'dDocent_Contig_868_82'
p4393
(dp4394
F120.0
g4
sF100.0
g3
ssS'dDocent_Contig_11397_75'
p4395
(dp4396
F100.0
g3
sF110.0
g4
ssS'dDocent_Contig_9142_11'
p4397
(dp4398
F130.0
g3
sF110.0
g4
ssS'dDocent_Contig_75137_38'
p4399
(dp4400
F130.0
g3
sF110.0
g4
ssS'dDocent_Contig_35954_9'
p4401
(dp4402
F130.0
g4
sF110.0
g3
ssS'dDocent_Contig_6610_44'
p4403
(dp4404
F130.0
g3
sF110.0
g4
ssS'dDocent_Contig_53155_47'
p4405
(dp4406
F130.0
g3
sF110.0
g4
ssS'dDocent_Contig_81473_32'
p4407
(dp4408
F120.0
g3
sF100.0
g4
ssS'dDocent_Contig_13974_14'
p4409
(dp4410
F130.0
g3
sF110.0
g4
ssS'dDocent_Contig_6118_34'
p4411
(dp4412
F100.0
g3
sF110.0
g4
ssS'dDocent_Contig_29962_106'
p4413
(dp4414
F120.0
g4
sF100.0
g3
ssS'dDocent_Contig_90666_30'
p4415
(dp4416
F130.0
g3
sF110.0
g4
ssS'dDocent_Contig_71044_20'
p4417
(dp4418
F120.0
g4
sF130.0
g3
ssS'dDocent_Contig_23383_42'
p4419
(dp4420
F130.0
g4
sF100.0
g3
ssS'dDocent_Contig_40126_19'
p4421
(dp4422
F120.0
g3
sF100.0
g4
ssS'dDocent_Contig_24564_7'
p4423
(dp4424
F120.0
g4
sF100.0
g3
ssS'dDocent_Contig_2537_45'
p4425
(dp4426
F120.0
g4
sF110.0
g3
ssS'dDocent_Contig_12347_78'
p4427
(dp4428
F120.0
g4
sF100.0
g3
ssS'dDocent_Contig_39178_45'
p4429
(dp4430
F120.0
g4
sF100.0
g3
ssS'dDocent_Contig_86807_41'
p4431
(dp4432
F100.0
g4
sF110.0
g3
ssS'dDocent_Contig_72861_42'
p4433
(dp4434
F120.0
g4
sF130.0
g3
ssS'dDocent_Contig_3783_18'
p4435
(dp4436
F120.0
g3
sF130.0
g4
ssS'dDocent_Contig_27438_47'
p4437
(dp4438
F100.0
g4
sF110.0
g3
ssS'dDocent_Contig_30614_26'
p4439
(dp4440
F130.0
g3
sF110.0
g4
ssS'dDocent_Contig_13272_19'
p4441
(dp4442
F120.0
g3
sF130.0
g4
ssS'dDocent_Contig_2530_85'
p4443
(dp4444
F130.0
g3
sF110.0
g4
ssS'dDocent_Contig_635_72'
p4445
(dp4446
F130.0
g3
sF110.0
g4
ssS'dDocent_Contig_10399_23'
p4447
(dp4448
F120.0
g3
sF100.0
g4
ssS'dDocent_Contig_38290_23'
p4449
(dp4450
F120.0
g3
sF100.0
g4
ssS'dDocent_Contig_4_49'
p4451
(dp4452
F120.0
g3
sF110.0
g4
ssS'dDocent_Contig_4235_28'
p4453
(dp4454
F120.0
g3
sF110.0
g4
ssS'dDocent_Contig_30651_214'
p4455
(dp4456
F130.0
g3
sF100.0
g4
ssS'dDocent_Contig_36515_33'
p4457
(dp4458
F120.0
g4
sF100.0
g3
ssS'dDocent_Contig_35725_74'
p4459
(dp4460
F120.0
g3
sF100.0
g4
ssS'dDocent_Contig_47210_36'
p4461
(dp4462
F130.0
g3
sF110.0
g4
ssS'dDocent_Contig_20340_17'
p4463
(dp4464
F120.0
g3
sF100.0
g4
ssS'dDocent_Contig_66995_66'
p4465
(dp4466
F130.0
g4
sF110.0
g3
ssS'dDocent_Contig_86534_28'
p4467
(dp4468
F130.0
g4
sF110.0
g3
ssS'dDocent_Contig_5939_51'
p4469
(dp4470
F120.0
g4
sF130.0
g3
ssS'dDocent_Contig_12848_18'
p4471
(dp4472
F120.0
g3
sF100.0
g4
ssS'dDocent_Contig_17664_38'
p4473
(dp4474
F120.0
g4
sF100.0
g3
ssS'dDocent_Contig_1223_16'
p4475
(dp4476
F130.0
g3
sF110.0
g4
ssS'dDocent_Contig_5896_17'
p4477
(dp4478
F120.0
g4
sF100.0
g3
ssS'dDocent_Contig_14202_9'
p4479
(dp4480
F130.0
g4
sF110.0
g3
ssS'dDocent_Contig_30564_13'
p4481
(dp4482
F120.0
g4
sF100.0
g3
ssS'dDocent_Contig_88539_25'
p4483
(dp4484
F130.0
g4
sF110.0
g3
ssS'dDocent_Contig_2620_16'
p4485
(dp4486
F120.0
g4
sF100.0
g3
ssS'dDocent_Contig_37071_23'
p4487
(dp4488
F100.0
g3
sF110.0
g4
ssS'dDocent_Contig_31298_30'
p4489
(dp4490
F130.0
g3
sF110.0
g4
ssS'dDocent_Contig_1330_37'
p4491
(dp4492
F120.0
g4
sF110.0
g3
ssS'dDocent_Contig_41531_10'
p4493
(dp4494
F130.0
g3
sF110.0
g4
ssS'dDocent_Contig_47082_26'
p4495
(dp4496
F130.0
g4
sF110.0
g3
ssS'dDocent_Contig_42941_51'
p4497
(dp4498
F120.0
g3
sF100.0
g4
ssS'dDocent_Contig_26858_42'
p4499
(dp4500
F130.0
g4
sF110.0
g3
ssS'dDocent_Contig_63943_21'
p4501
(dp4502
F130.0
g4
sF110.0
g3
ssS'dDocent_Contig_7123_61'
p4503
(dp4504
F130.0
g4
sF110.0
g3
ssS'dDocent_Contig_10046_34'
p4505
(dp4506
F130.0
g3
sF110.0
g4
ssS'dDocent_Contig_5153_11'
p4507
(dp4508
F120.0
g4
sF100.0
g3
ssS'dDocent_Contig_10018_29'
p4509
(dp4510
F100.0
g3
sF110.0
g4
ssS'dDocent_Contig_32467_9'
p4511
(dp4512
F120.0
g3
sF100.0
g4
ssS'dDocent_Contig_33519_58'
p4513
(dp4514
F120.0
g4
sF100.0
g3
ssS'dDocent_Contig_14518_35'
p4515
(dp4516
F120.0
g4
sF100.0
g3
ssS'dDocent_Contig_41091_24'
p4517
(dp4518
F120.0
g4
sF100.0
g3
ssS'dDocent_Contig_10740_16'
p4519
(dp4520
F120.0
g4
sF100.0
g3
ssS'dDocent_Contig_66155_35'
p4521
(dp4522
F120.0
g4
sF100.0
g3
ssS'dDocent_Contig_3189_12'
p4523
(dp4524
F120.0
g4
sF100.0
g3
ssS'dDocent_Contig_23351_35'
p4525
(dp4526
F120.0
g3
sF100.0
g4
ssS'dDocent_Contig_25707_10'
p4527
(dp4528
F130.0
g3
sF110.0
g4
ssS'dDocent_Contig_6559_58'
p4529
(dp4530
F130.0
g4
sF110.0
g3
ssS'dDocent_Contig_53178_39'
p4531
(dp4532
F120.0
g4
sF100.0
g3
ssS'dDocent_Contig_33383_44'
p4533
(dp4534
F120.0
g4
sF100.0
g3
ssS'dDocent_Contig_8812_125'
p4535
(dp4536
F100.0
g3
sF110.0
g4
ssS'dDocent_Contig_14758_10'
p4537
(dp4538
F130.0
g3
sF110.0
g4
ssS'dDocent_Contig_53971_29'
p4539
(dp4540
F100.0
g4
sF110.0
g3
ssS'dDocent_Contig_4823_45'
p4541
(dp4542
F130.0
g3
sF110.0
g4
ssS'dDocent_Contig_1534_74'
p4543
(dp4544
F120.0
g3
sF110.0
g4
ssS'dDocent_Contig_50297_15'
p4545
(dp4546
F130.0
g4
sF110.0
g3
ssS'dDocent_Contig_32342_212'
p4547
(dp4548
F130.0
g3
sF110.0
g4
ssS'dDocent_Contig_21899_43'
p4549
(dp4550
F120.0
g3
sF100.0
g4
ssS'dDocent_Contig_6209_19'
p4551
(dp4552
F120.0
g3
sF100.0
g4
ssS'dDocent_Contig_43376_87'
p4553
(dp4554
F120.0
g3
sF100.0
g4
ssS'dDocent_Contig_64268_41'
p4555
(dp4556
F120.0
g3
sF100.0
g4
ssS'dDocent_Contig_52349_18'
p4557
(dp4558
F130.0
g4
sF110.0
g3
ssS'dDocent_Contig_82726_17'
p4559
(dp4560
F130.0
g4
sF110.0
g3
ssS'dDocent_Contig_92605_39'
p4561
(dp4562
F120.0
g3
sF100.0
g4
ssS'dDocent_Contig_75970_50'
p4563
(dp4564
F120.0
g3
sF110.0
g4
ssS'dDocent_Contig_20941_7'
p4565
(dp4566
F130.0
g4
sF100.0
g3
ssS'dDocent_Contig_56645_16'
p4567
(dp4568
F120.0
g3
sF100.0
g4
ssS'dDocent_Contig_44458_76'
p4569
(dp4570
F120.0
g3
sF100.0
g4
ssS'dDocent_Contig_9507_7'
p4571
(dp4572
F120.0
g3
sF100.0
g4
ssS'dDocent_Contig_19987_23'
p4573
(dp4574
F130.0
g4
sF100.0
g3
ssS'dDocent_Contig_17909_39'
p4575
(dp4576
F100.0
g4
sF110.0
g3
ssS'dDocent_Contig_78384_19'
p4577
(dp4578
F130.0
g3
sF100.0
g4
ssS'dDocent_Contig_72492_182'
p4579
(dp4580
F130.0
g3
sF100.0
g4
ssS'dDocent_Contig_49639_16'
p4581
(dp4582
F100.0
g3
sF110.0
g4
ssS'dDocent_Contig_16971_27'
p4583
(dp4584
F120.0
g3
sF100.0
g4
ssS'dDocent_Contig_53893_50'
p4585
(dp4586
F120.0
g4
sF100.0
g3
ssS'dDocent_Contig_7253_66'
p4587
(dp4588
F130.0
g4
sF110.0
g3
ssS'dDocent_Contig_73549_29'
p4589
(dp4590
F130.0
g4
sF110.0
g3
ssS'dDocent_Contig_1631_83'
p4591
(dp4592
F100.0
g4
sF110.0
g3
ssS'dDocent_Contig_160_33'
p4593
(dp4594
F130.0
g4
sF110.0
g3
ssS'dDocent_Contig_16559_145'
p4595
(dp4596
F120.0
g4
sF100.0
g3
ssS'dDocent_Contig_12168_114'
p4597
(dp4598
F130.0
g3
sF110.0
g4
ssS'dDocent_Contig_2959_62'
p4599
(dp4600
F130.0
g4
sF110.0
g3
ssS'dDocent_Contig_59613_21'
p4601
(dp4602
F120.0
g3
sF100.0
g4
ssS'dDocent_Contig_14347_18'
p4603
(dp4604
F130.0
g3
sF110.0
g4
ssS'dDocent_Contig_11742_74'
p4605
(dp4606
F130.0
g4
sF110.0
g3
ssS'dDocent_Contig_5105_8'
p4607
(dp4608
F120.0
g3
sF100.0
g4
ssS'dDocent_Contig_25378_31'
p4609
(dp4610
F130.0
g3
sF110.0
g4
ssS'dDocent_Contig_30070_15'
p4611
(dp4612
F120.0
g4
sF100.0
g3
ssS'dDocent_Contig_41928_15'
p4613
(dp4614
F120.0
g4
sF110.0
g3
ssS'dDocent_Contig_3529_51'
p4615
(dp4616
F130.0
g3
sF110.0
g4
ssS'dDocent_Contig_13016_9'
p4617
(dp4618
F130.0
g3
sF110.0
g4
ssS'dDocent_Contig_37076_125'
p4619
(dp4620
F120.0
g3
sF130.0
g4
ssS'dDocent_Contig_44622_44'
p4621
(dp4622
F120.0
g3
sF100.0
g4
ssS'dDocent_Contig_26731_28'
p4623
(dp4624
F130.0
g4
sF110.0
g3
ssS'dDocent_Contig_26868_26'
p4625
(dp4626
F120.0
g4
sF100.0
g3
ssS'dDocent_Contig_40168_18'
p4627
(dp4628
F130.0
g3
sF110.0
g4
ssS'dDocent_Contig_16230_33'
p4629
(dp4630
F120.0
g4
sF130.0
g3
ssS'dDocent_Contig_8862_20'
p4631
(dp4632
F120.0
g4
sF100.0
g3
ssS'dDocent_Contig_22576_8'
p4633
(dp4634
F130.0
g4
sF110.0
g3
ssS'dDocent_Contig_12286_25'
p4635
(dp4636
F120.0
g3
sF100.0
g4
ssS'dDocent_Contig_7063_69'
p4637
(dp4638
F120.0
g3
sF100.0
g4
ssS'dDocent_Contig_26526_7'
p4639
(dp4640
F120.0
g3
sF110.0
g4
ssS'dDocent_Contig_17191_79'
p4641
(dp4642
F120.0
g4
sF100.0
g3
ssS'dDocent_Contig_4272_19'
p4643
(dp4644
F120.0
g4
sF130.0
g3
ssS'dDocent_Contig_13349_40'
p4645
(dp4646
F130.0
g3
sF110.0
g4
ssS'dDocent_Contig_10958_27'
p4647
(dp4648
F100.0
g4
sF110.0
g3
ssS'dDocent_Contig_11456_19'
p4649
(dp4650
F120.0
g4
sF100.0
g3
ssS'dDocent_Contig_59787_8'
p4651
(dp4652
F130.0
g3
sF110.0
g4
ssS'dDocent_Contig_32890_40'
p4653
(dp4654
F120.0
g3
sF100.0
g4
ssS'dDocent_Contig_16973_69'
p4655
(dp4656
F120.0
g4
sF100.0
g3
ssS'dDocent_Contig_83291_49'
p4657
(dp4658
F120.0
g4
sF100.0
g3
ssS'dDocent_Contig_19639_8'
p4659
(dp4660
F120.0
g4
sF100.0
g3
ssS'dDocent_Contig_1429_29'
p4661
(dp4662
F120.0
g3
sF100.0
g4
ssS'dDocent_Contig_47992_131'
p4663
(dp4664
F130.0
g3
sF110.0
g4
ssS'dDocent_Contig_43850_111'
p4665
(dp4666
F130.0
g4
sF110.0
g3
ssS'dDocent_Contig_35178_12'
p4667
(dp4668
F130.0
g4
sF110.0
g3
ssS'dDocent_Contig_33408_36'
p4669
(dp4670
F120.0
g3
sF100.0
g4
ssS'dDocent_Contig_38687_67'
p4671
(dp4672
F120.0
g4
sF100.0
g3
ssS'dDocent_Contig_5157_17'
p4673
(dp4674
F120.0
g3
sF100.0
g4
ssS'dDocent_Contig_28813_16'
p4675
(dp4676
F130.0
g4
sF110.0
g3
ssS'dDocent_Contig_15161_26'
p4677
(dp4678
F120.0
g3
sF100.0
g4
ssS'dDocent_Contig_18899_15'
p4679
(dp4680
F120.0
g3
sF100.0
g4
ssS'dDocent_Contig_62323_45'
p4681
(dp4682
F130.0
g3
sF110.0
g4
ssS'dDocent_Contig_5636_26'
p4683
(dp4684
F120.0
g3
sF130.0
g4
ssS'dDocent_Contig_39997_25'
p4685
(dp4686
F120.0
g4
sF130.0
g3
ssS'dDocent_Contig_26158_37'
p4687
(dp4688
F130.0
g3
sF110.0
g4
ssS'dDocent_Contig_24680_11'
p4689
(dp4690
F100.0
g4
sF110.0
g3
ssS'dDocent_Contig_35422_23'
p4691
(dp4692
F120.0
g3
sF100.0
g4
ssS'dDocent_Contig_4396_28'
p4693
(dp4694
F130.0
g3
sF110.0
g4
ssS'dDocent_Contig_29211_33'
p4695
(dp4696
F120.0
g3
sF100.0
g4
ssS'dDocent_Contig_4977_34'
p4697
(dp4698
F130.0
g4
sF100.0
g3
ssS'dDocent_Contig_39632_97'
p4699
(dp4700
F130.0
g4
sF100.0
g3
ssS'dDocent_Contig_901_14'
p4701
(dp4702
F100.0
g3
sF110.0
g4
ssS'dDocent_Contig_53351_72'
p4703
(dp4704
F130.0
g4
sF100.0
g3
ssS'dDocent_Contig_18760_12'
p4705
(dp4706
F120.0
g3
sF100.0
g4
ssS'dDocent_Contig_23727_21'
p4707
(dp4708
F100.0
g4
sF110.0
g3
ssS'dDocent_Contig_21208_8'
p4709
(dp4710
F120.0
g3
sF100.0
g4
ssS'dDocent_Contig_88298_23'
p4711
(dp4712
F130.0
g4
sF100.0
g3
ssS'dDocent_Contig_36323_34'
p4713
(dp4714
F120.0
g4
sF100.0
g3
ssS'dDocent_Contig_29355_15'
p4715
(dp4716
F130.0
g4
sF110.0
g3
ssS'dDocent_Contig_18091_31'
p4717
(dp4718
F120.0
g3
sF110.0
g4
ssS'dDocent_Contig_64825_39'
p4719
(dp4720
F120.0
g3
sF100.0
g4
ssS'dDocent_Contig_76626_90'
p4721
(dp4722
F120.0
g3
sF110.0
g4
ssS'dDocent_Contig_5642_32'
p4723
(dp4724
F100.0
g4
sF110.0
g3
ssS'dDocent_Contig_7774_12'
p4725
(dp4726
F130.0
g3
sF110.0
g4
ssS'dDocent_Contig_35876_22'
p4727
(dp4728
F120.0
g4
sF100.0
g3
ssS'dDocent_Contig_1759_8'
p4729
(dp4730
F120.0
g4
sF100.0
g3
ssS'dDocent_Contig_23361_21'
p4731
(dp4732
F130.0
g3
sF110.0
g4
ssS'dDocent_Contig_21990_27'
p4733
(dp4734
F130.0
g3
sF110.0
g4
ssS'dDocent_Contig_41664_24'
p4735
(dp4736
F130.0
g4
sF110.0
g3
ssS'dDocent_Contig_38060_26'
p4737
(dp4738
F130.0
g3
sF110.0
g4
ssS'dDocent_Contig_1038_39'
p4739
(dp4740
F130.0
g4
sF110.0
g3
ssS'dDocent_Contig_38832_17'
p4741
(dp4742
F100.0
g3
sF110.0
g4
ssS'dDocent_Contig_54556_13'
p4743
(dp4744
F120.0
g3
sF100.0
g4
ssS'dDocent_Contig_87586_42'
p4745
(dp4746
F120.0
g3
sF100.0
g4
ssS'dDocent_Contig_19766_39'
p4747
(dp4748
F120.0
g4
sF100.0
g3
ssS'dDocent_Contig_18037_62'
p4749
(dp4750
F120.0
g4
sF100.0
g3
ssS'dDocent_Contig_4315_132'
p4751
(dp4752
F120.0
g3
sF110.0
g4
ssS'dDocent_Contig_29069_46'
p4753
(dp4754
F130.0
g3
sF110.0
g4
ssS'dDocent_Contig_16045_87'
p4755
(dp4756
F130.0
g3
sF110.0
g4
ssS'dDocent_Contig_22330_65'
p4757
(dp4758
F120.0
g3
sF100.0
g4
ssS'dDocent_Contig_1767_14'
p4759
(dp4760
F130.0
g3
sF110.0
g4
ssS'dDocent_Contig_15418_11'
p4761
(dp4762
F120.0
g3
sF100.0
g4
ssS'dDocent_Contig_8626_51'
p4763
(dp4764
F130.0
g3
sF110.0
g4
ssS'dDocent_Contig_10278_91'
p4765
(dp4766
F120.0
g4
sF100.0
g3
ssS'dDocent_Contig_80794_7'
p4767
(dp4768
F130.0
g4
sF110.0
g3
ssS'dDocent_Contig_17204_9'
p4769
(dp4770
F120.0
g3
sF100.0
g4
ssS'dDocent_Contig_6710_14'
p4771
(dp4772
F100.0
g3
sF110.0
g4
ssS'dDocent_Contig_88942_15'
p4773
(dp4774
F120.0
g3
sF110.0
g4
ssS'dDocent_Contig_66602_51'
p4775
(dp4776
F130.0
g4
sF110.0
g3
ssS'dDocent_Contig_6484_21'
p4777
(dp4778
F130.0
g3
sF100.0
g4
ssS'dDocent_Contig_76475_41'
p4779
(dp4780
F120.0
g3
sF100.0
g4
ssS'dDocent_Contig_532_12'
p4781
(dp4782
F120.0
g4
sF100.0
g3
ssS'dDocent_Contig_57313_16'
p4783
(dp4784
F130.0
g4
sF110.0
g3
ssS'dDocent_Contig_32113_94'
p4785
(dp4786
F130.0
g4
sF110.0
g3
ssS'dDocent_Contig_21504_23'
p4787
(dp4788
F130.0
g4
sF110.0
g3
ssS'dDocent_Contig_915_45'
p4789
(dp4790
F130.0
g3
sF110.0
g4
ssS'dDocent_Contig_12721_68'
p4791
(dp4792
F120.0
g3
sF100.0
g4
ssS'dDocent_Contig_18675_25'
p4793
(dp4794
F130.0
g3
sF110.0
g4
ssS'dDocent_Contig_2494_38'
p4795
(dp4796
F120.0
g3
sF100.0
g4
ssS'dDocent_Contig_13491_7'
p4797
(dp4798
F130.0
g3
sF110.0
g4
ssS'dDocent_Contig_18409_18'
p4799
(dp4800
F120.0
g3
sF100.0
g4
ssS'dDocent_Contig_13582_43'
p4801
(dp4802
F130.0
g3
sF110.0
g4
ssS'dDocent_Contig_24731_71'
p4803
(dp4804
F130.0
g3
sF110.0
g4
ssS'dDocent_Contig_53690_36'
p4805
(dp4806
F130.0
g4
sF110.0
g3
ssS'dDocent_Contig_6477_88'
p4807
(dp4808
F120.0
g4
sF100.0
g3
ssS'dDocent_Contig_475_72'
p4809
(dp4810
F120.0
g3
sF100.0
g4
ssS'dDocent_Contig_26550_18'
p4811
(dp4812
F100.0
g3
sF110.0
g4
ssS'dDocent_Contig_8715_103'
p4813
(dp4814
F130.0
g4
sF100.0
g3
ssS'dDocent_Contig_72113_13'
p4815
(dp4816
F130.0
g3
sF110.0
g4
ssS'dDocent_Contig_23931_85'
p4817
(dp4818
F120.0
g3
sF100.0
g4
ssS'dDocent_Contig_33190_30'
p4819
(dp4820
F120.0
g3
sF110.0
g4
ssS'dDocent_Contig_139_40'
p4821
(dp4822
F130.0
g4
sF110.0
g3
ssS'dDocent_Contig_89419_8'
p4823
(dp4824
F120.0
g3
sF100.0
g4
ssS'dDocent_Contig_8634_67'
p4825
(dp4826
F120.0
g4
sF130.0
g3
ssS'dDocent_Contig_11388_8'
p4827
(dp4828
F130.0
g3
sF110.0
g4
ssS'dDocent_Contig_756_41'
p4829
(dp4830
F130.0
g4
sF110.0
g3
ssS'dDocent_Contig_67202_31'
p4831
(dp4832
F130.0
g4
sF110.0
g3
ssS'dDocent_Contig_60291_33'
p4833
(dp4834
F130.0
g3
sF100.0
g4
ssS'dDocent_Contig_36829_216'
p4835
(dp4836
F130.0
g3
sF110.0
g4
ssS'dDocent_Contig_2374_28'
p4837
(dp4838
F120.0
g4
sF100.0
g3
ssS'dDocent_Contig_21325_42'
p4839
(dp4840
F130.0
g3
sF110.0
g4
ssS'dDocent_Contig_7238_38'
p4841
(dp4842
F120.0
g3
sF100.0
g4
ssS'dDocent_Contig_60279_7'
p4843
(dp4844
F120.0
g4
sF100.0
g3
ssS'dDocent_Contig_20925_13'
p4845
(dp4846
F100.0
g3
sF110.0
g4
ssS'dDocent_Contig_34121_22'
p4847
(dp4848
F130.0
g3
sF100.0
g4
ssS'dDocent_Contig_11048_49'
p4849
(dp4850
F120.0
g3
sF100.0
g4
ssS'dDocent_Contig_44195_106'
p4851
(dp4852
F130.0
g3
sF110.0
g4
ssS'dDocent_Contig_23750_10'
p4853
(dp4854
F120.0
g4
sF100.0
g3
ssS'dDocent_Contig_38023_19'
p4855
(dp4856
F120.0
g3
sF100.0
g4
ssS'dDocent_Contig_93950_84'
p4857
(dp4858
F130.0
g3
sF110.0
g4
ssS'dDocent_Contig_4916_46'
p4859
(dp4860
F130.0
g4
sF100.0
g3
ssS'dDocent_Contig_10060_9'
p4861
(dp4862
F130.0
g3
sF110.0
g4
ssS'dDocent_Contig_34743_104'
p4863
(dp4864
F130.0
g3
sF110.0
g4
ssS'dDocent_Contig_25865_85'
p4865
(dp4866
F120.0
g3
sF100.0
g4
ssS'dDocent_Contig_53244_74'
p4867
(dp4868
F130.0
g4
sF110.0
g3
ssS'dDocent_Contig_25159_18'
p4869
(dp4870
F130.0
g3
sF110.0
g4
ssS'dDocent_Contig_59035_20'
p4871
(dp4872
F120.0
g3
sF100.0
g4
ssS'dDocent_Contig_18007_110'
p4873
(dp4874
F100.0
g3
sF110.0
g4
ssS'dDocent_Contig_41813_10'
p4875
(dp4876
F130.0
g3
sF110.0
g4
ssS'dDocent_Contig_47019_140'
p4877
(dp4878
F120.0
g4
sF100.0
g3
ssS'dDocent_Contig_19507_32'
p4879
(dp4880
F120.0
g3
sF100.0
g4
ssS'dDocent_Contig_14099_65'
p4881
(dp4882
F120.0
g3
sF100.0
g4
ssS'dDocent_Contig_26180_32'
p4883
(dp4884
F120.0
g4
sF100.0
g3
ssS'dDocent_Contig_55137_13'
p4885
(dp4886
F130.0
g3
sF110.0
g4
ssS'dDocent_Contig_15492_69'
p4887
(dp4888
F120.0
g3
sF100.0
g4
ssS'dDocent_Contig_12306_14'
p4889
(dp4890
F120.0
g4
sF100.0
g3
ssS'dDocent_Contig_10383_10'
p4891
(dp4892
F120.0
g3
sF100.0
g4
ssS'dDocent_Contig_49806_11'
p4893
(dp4894
F120.0
g4
sF100.0
g3
ssS'dDocent_Contig_32331_97'
p4895
(dp4896
F120.0
g3
sF100.0
g4
ssS'dDocent_Contig_58216_29'
p4897
(dp4898
F130.0
g4
sF100.0
g3
ssS'dDocent_Contig_29641_48'
p4899
(dp4900
F120.0
g4
sF130.0
g3
ssS'dDocent_Contig_6618_43'
p4901
(dp4902
F120.0
g4
sF100.0
g3
ssS'dDocent_Contig_9751_68'
p4903
(dp4904
F120.0
g3
sF110.0
g4
ssS'dDocent_Contig_1291_14'
p4905
(dp4906
F130.0
g3
sF100.0
g4
ssS'dDocent_Contig_9008_9'
p4907
(dp4908
F120.0
g4
sF130.0
g3
ssS'dDocent_Contig_9729_31'
p4909
(dp4910
F130.0
g4
sF110.0
g3
ssS'dDocent_Contig_80073_33'
p4911
(dp4912
F120.0
g4
sF100.0
g3
ssS'dDocent_Contig_54073_120'
p4913
(dp4914
F130.0
g4
sF100.0
g3
ssS'dDocent_Contig_14013_30'
p4915
(dp4916
F130.0
g4
sF110.0
g3
ssS'dDocent_Contig_47026_20'
p4917
(dp4918
F120.0
g3
sF110.0
g4
ssS'dDocent_Contig_65302_23'
p4919
(dp4920
F130.0
g3
sF110.0
g4
ssS'dDocent_Contig_11774_13'
p4921
(dp4922
F120.0
g4
sF110.0
g3
ssS'dDocent_Contig_54770_168'
p4923
(dp4924
F130.0
g3
sF110.0
g4
ssS'dDocent_Contig_2295_28'
p4925
(dp4926
F120.0
g4
sF130.0
g3
ssS'dDocent_Contig_17290_8'
p4927
(dp4928
F120.0
g4
sF100.0
g3
ssS'dDocent_Contig_40644_153'
p4929
(dp4930
F120.0
g3
sF110.0
g4
ssS'dDocent_Contig_36250_36'
p4931
(dp4932
F120.0
g4
sF130.0
g3
ssS'dDocent_Contig_6981_14'
p4933
(dp4934
F130.0
g3
sF110.0
g4
ssS'dDocent_Contig_16594_36'
p4935
(dp4936
F120.0
g4
sF100.0
g3
ssS'dDocent_Contig_11177_30'
p4937
(dp4938
F130.0
g4
sF110.0
g3
ssS'dDocent_Contig_48205_38'
p4939
(dp4940
F100.0
g4
sF110.0
g3
ssS'dDocent_Contig_64372_49'
p4941
(dp4942
F120.0
g4
sF130.0
g3
ssS'dDocent_Contig_6987_18'
p4943
(dp4944
F120.0
g4
sF100.0
g3
ssS'dDocent_Contig_9194_166'
p4945
(dp4946
F130.0
g3
sF110.0
g4
ssS'dDocent_Contig_9919_8'
p4947
(dp4948
F120.0
g3
sF100.0
g4
ssS'dDocent_Contig_32946_31'
p4949
(dp4950
F130.0
g3
sF100.0
g4
ssS'dDocent_Contig_5803_9'
p4951
(dp4952
F120.0
g4
sF100.0
g3
ssS'dDocent_Contig_25814_49'
p4953
(dp4954
F120.0
g3
sF100.0
g4
ssS'dDocent_Contig_6449_85'
p4955
(dp4956
F120.0
g3
sF110.0
g4
ssS'dDocent_Contig_12545_7'
p4957
(dp4958
F120.0
g3
sF100.0
g4
ssS'dDocent_Contig_15186_31'
p4959
(dp4960
F100.0
g4
sF110.0
g3
ssS'dDocent_Contig_22830_59'
p4961
(dp4962
F130.0
g3
sF110.0
g4
ssS'dDocent_Contig_35097_10'
p4963
(dp4964
F130.0
g3
sF110.0
g4
ssS'dDocent_Contig_55782_154'
p4965
(dp4966
F130.0
g4
sF100.0
g3
ssS'dDocent_Contig_23076_14'
p4967
(dp4968
F130.0
g3
sF110.0
g4
ssS'dDocent_Contig_17583_21'
p4969
(dp4970
F130.0
g3
sF110.0
g4
ssS'dDocent_Contig_6713_29'
p4971
(dp4972
F130.0
g3
sF110.0
g4
ssS'dDocent_Contig_13570_32'
p4973
(dp4974
F130.0
g3
sF110.0
g4
ssS'dDocent_Contig_1374_87'
p4975
(dp4976
F130.0
g3
sF110.0
g4
ssS'dDocent_Contig_26215_10'
p4977
(dp4978
F120.0
g3
sF110.0
g4
ssS'dDocent_Contig_50353_30'
p4979
(dp4980
F100.0
g4
sF110.0
g3
ssS'dDocent_Contig_11386_72'
p4981
(dp4982
F130.0
g4
sF110.0
g3
ssS'dDocent_Contig_1078_26'
p4983
(dp4984
F130.0
g4
sF100.0
g3
ssS'dDocent_Contig_33494_158'
p4985
(dp4986
F130.0
g3
sF100.0
g4
ssS'dDocent_Contig_5265_55'
p4987
(dp4988
F120.0
g3
sF100.0
g4
ssS'dDocent_Contig_11478_22'
p4989
(dp4990
F130.0
g4
sF110.0
g3
ssS'dDocent_Contig_16821_119'
p4991
(dp4992
F130.0
g3
sF110.0
g4
ssS'dDocent_Contig_36489_86'
p4993
(dp4994
F130.0
g3
sF110.0
g4
ssS'dDocent_Contig_6525_11'
p4995
(dp4996
F120.0
g4
sF100.0
g3
ssS'dDocent_Contig_48199_18'
p4997
(dp4998
F100.0
g4
sF110.0
g3
ssS'dDocent_Contig_48962_17'
p4999
(dp5000
F120.0
g4
sF100.0
g3
ssS'dDocent_Contig_10804_11'
p5001
(dp5002
F130.0
g3
sF110.0
g4
ssS'dDocent_Contig_8658_14'
p5003
(dp5004
F100.0
g4
sF110.0
g3
ssS'dDocent_Contig_3240_66'
p5005
(dp5006
F120.0
g3
sF100.0
g4
ssS'dDocent_Contig_36361_24'
p5007
(dp5008
F130.0
g3
sF110.0
g4
ssS'dDocent_Contig_18237_83'
p5009
(dp5010
F120.0
g3
sF110.0
g4
ssS'dDocent_Contig_1914_54'
p5011
(dp5012
F130.0
g4
sF110.0
g3
ssS'dDocent_Contig_24676_34'
p5013
(dp5014
F120.0
g3
sF100.0
g4
ssS'dDocent_Contig_7779_11'
p5015
(dp5016
F130.0
g3
sF110.0
g4
ssS'dDocent_Contig_9773_14'
p5017
(dp5018
F120.0
g4
sF130.0
g3
ssS'dDocent_Contig_50718_31'
p5019
(dp5020
F130.0
g4
sF110.0
g3
ssS'dDocent_Contig_18604_203'
p5021
(dp5022
F130.0
g3
sF110.0
g4
ssS'dDocent_Contig_16439_43'
p5023
(dp5024
F130.0
g4
sF110.0
g3
ssS'dDocent_Contig_26540_102'
p5025
(dp5026
F130.0
g3
sF110.0
g4
ssS'dDocent_Contig_16935_24'
p5027
(dp5028
F120.0
g4
sF100.0
g3
ssS'dDocent_Contig_83887_7'
p5029
(dp5030
F120.0
g3
sF100.0
g4
ssS'dDocent_Contig_49231_7'
p5031
(dp5032
F120.0
g3
sF100.0
g4
ssS'dDocent_Contig_71562_33'
p5033
(dp5034
F130.0
g4
sF110.0
g3
ssS'dDocent_Contig_7411_28'
p5035
(dp5036
F130.0
g3
sF110.0
g4
ssS'dDocent_Contig_83952_21'
p5037
(dp5038
F130.0
g3
sF110.0
g4
ssS'dDocent_Contig_12857_30'
p5039
(dp5040
F100.0
g4
sF110.0
g3
ssS'dDocent_Contig_7367_8'
p5041
(dp5042
F120.0
g3
sF100.0
g4
ssS'dDocent_Contig_14819_110'
p5043
(dp5044
F120.0
g4
sF100.0
g3
ssS'dDocent_Contig_89031_57'
p5045
(dp5046
F120.0
g3
sF130.0
g4
ssS'dDocent_Contig_9865_29'
p5047
(dp5048
F120.0
g3
sF100.0
g4
ssS'dDocent_Contig_10142_14'
p5049
(dp5050
F120.0
g3
sF100.0
g4
ssS'dDocent_Contig_17537_49'
p5051
(dp5052
F120.0
g4
sF100.0
g3
ssS'dDocent_Contig_28125_68'
p5053
(dp5054
F130.0
g4
sF110.0
g3
ssS'dDocent_Contig_19393_31'
p5055
(dp5056
F120.0
g3
sF100.0
g4
ssS'dDocent_Contig_1035_31'
p5057
(dp5058
F130.0
g4
sF110.0
g3
ssS'dDocent_Contig_29716_45'
p5059
(dp5060
F130.0
g4
sF110.0
g3
ssS'dDocent_Contig_36530_16'
p5061
(dp5062
F130.0
g4
sF110.0
g3
ssS'dDocent_Contig_49433_58'
p5063
(dp5064
F130.0
g4
sF110.0
g3
ssS'dDocent_Contig_7599_10'
p5065
(dp5066
F130.0
g4
sF110.0
g3
ssS'dDocent_Contig_13455_64'
p5067
(dp5068
F120.0
g3
sF100.0
g4
ssS'dDocent_Contig_11263_31'
p5069
(dp5070
F120.0
g4
sF100.0
g3
ssS'dDocent_Contig_15870_29'
p5071
(dp5072
F100.0
g4
sF110.0
g3
ssS'dDocent_Contig_42551_19'
p5073
(dp5074
F130.0
g4
sF110.0
g3
ssS'dDocent_Contig_31798_170'
p5075
(dp5076
F120.0
g4
sF100.0
g3
ssS'dDocent_Contig_55510_37'
p5077
(dp5078
F130.0
g4
sF110.0
g3
ssS'dDocent_Contig_8389_71'
p5079
(dp5080
F130.0
g3
sF110.0
g4
ssS'dDocent_Contig_1010_13'
p5081
(dp5082
F120.0
g4
sF100.0
g3
ssS'dDocent_Contig_17396_8'
p5083
(dp5084
F120.0
g3
sF110.0
g4
ssS'dDocent_Contig_7297_34'
p5085
(dp5086
F130.0
g3
sF110.0
g4
ssS'dDocent_Contig_5640_19'
p5087
(dp5088
F130.0
g3
sF110.0
g4
ssS'dDocent_Contig_67240_32'
p5089
(dp5090
F120.0
g3
sF100.0
g4
ssS'dDocent_Contig_7929_45'
p5091
(dp5092
F130.0
g3
sF110.0
g4
ssS'dDocent_Contig_2900_83'
p5093
(dp5094
F130.0
g4
sF110.0
g3
ssS'dDocent_Contig_8284_24'
p5095
(dp5096
F130.0
g3
sF110.0
g4
ssS'dDocent_Contig_48689_8'
p5097
(dp5098
F100.0
g4
sF110.0
g3
ssS'dDocent_Contig_36423_22'
p5099
(dp5100
F100.0
g3
sF110.0
g4
ssS'dDocent_Contig_39351_218'
p5101
(dp5102
F130.0
g4
sF110.0
g3
ssS'dDocent_Contig_1247_23'
p5103
(dp5104
F120.0
g3
sF100.0
g4
ssS'dDocent_Contig_7162_87'
p5105
(dp5106
F120.0
g4
sF110.0
g3
ssS'dDocent_Contig_35354_58'
p5107
(dp5108
F130.0
g4
sF110.0
g3
ssS'dDocent_Contig_22123_279'
p5109
(dp5110
F130.0
g4
sF110.0
g3
ssS'dDocent_Contig_39769_23'
p5111
(dp5112
F120.0
g3
sF100.0
g4
ssS'dDocent_Contig_6732_77'
p5113
(dp5114
F130.0
g3
sF110.0
g4
ssS'dDocent_Contig_6631_35'
p5115
(dp5116
F130.0
g3
sF110.0
g4
ssS'dDocent_Contig_23918_44'
p5117
(dp5118
F130.0
g3
sF110.0
g4
ssS'dDocent_Contig_444_53'
p5119
(dp5120
F120.0
g4
sF100.0
g3
ssS'dDocent_Contig_14521_97'
p5121
(dp5122
F120.0
g3
sF100.0
g4
ssS'dDocent_Contig_3150_8'
p5123
(dp5124
F130.0
g4
sF110.0
g3
ssS'dDocent_Contig_50883_84'
p5125
(dp5126
F100.0
g3
sF110.0
g4
ssS'dDocent_Contig_3786_20'
p5127
(dp5128
F120.0
g3
sF100.0
g4
ssS'dDocent_Contig_36120_24'
p5129
(dp5130
F120.0
g3
sF100.0
g4
ssS'dDocent_Contig_86658_20'
p5131
(dp5132
F120.0
g4
sF100.0
g3
ssS'dDocent_Contig_3534_15'
p5133
(dp5134
F100.0
g3
sF110.0
g4
ssS'dDocent_Contig_14472_46'
p5135
(dp5136
F120.0
g4
sF100.0
g3
ssS'dDocent_Contig_7345_27'
p5137
(dp5138
F130.0
g4
sF110.0
g3
ssS'dDocent_Contig_5054_16'
p5139
(dp5140
F120.0
g4
sF100.0
g3
ssS'dDocent_Contig_42594_69'
p5141
(dp5142
F120.0
g3
sF100.0
g4
ssS'dDocent_Contig_15214_66'
p5143
(dp5144
F130.0
g3
sF110.0
g4
ssS'dDocent_Contig_18457_117'
p5145
(dp5146
F120.0
g4
sF100.0
g3
ssS'dDocent_Contig_10445_64'
p5147
(dp5148
F130.0
g3
sF110.0
g4
ssS'dDocent_Contig_48579_43'
p5149
(dp5150
F120.0
g3
sF130.0
g4
ssS'dDocent_Contig_3957_82'
p5151
(dp5152
F100.0
g3
sF110.0
g4
ssS'dDocent_Contig_28904_63'
p5153
(dp5154
F130.0
g3
sF110.0
g4
ssS'dDocent_Contig_21119_25'
p5155
(dp5156
F120.0
g3
sF110.0
g4
ssS'dDocent_Contig_443_79'
p5157
(dp5158
F120.0
g3
sF100.0
g4
ssS'dDocent_Contig_36983_84'
p5159
(dp5160
F130.0
g4
sF110.0
g3
ssS'dDocent_Contig_56021_52'
p5161
(dp5162
F130.0
g4
sF110.0
g3
ssS'dDocent_Contig_88502_260'
p5163
(dp5164
F130.0
g3
sF100.0
g4
ssS'dDocent_Contig_16551_14'
p5165
(dp5166
F130.0
g3
sF110.0
g4
ssS'dDocent_Contig_18649_144'
p5167
(dp5168
F120.0
g3
sF100.0
g4
ssS'dDocent_Contig_2375_18'
p5169
(dp5170
F130.0
g4
sF100.0
g3
ssS'dDocent_Contig_45100_25'
p5171
(dp5172
F120.0
g4
sF110.0
g3
ssS'dDocent_Contig_14474_48'
p5173
(dp5174
F130.0
g4
sF110.0
g3
ssS'dDocent_Contig_1994_101'
p5175
(dp5176
F120.0
g3
sF110.0
g4
ssS'dDocent_Contig_33064_69'
p5177
(dp5178
F120.0
g4
sF110.0
g3
ssS'dDocent_Contig_5056_47'
p5179
(dp5180
F130.0
g4
sF110.0
g3
ssS'dDocent_Contig_26864_50'
p5181
(dp5182
F130.0
g4
sF110.0
g3
ssS'dDocent_Contig_43036_73'
p5183
(dp5184
F120.0
g3
sF100.0
g4
ssS'dDocent_Contig_53322_19'
p5185
(dp5186
F100.0
g4
sF110.0
g3
ssS'dDocent_Contig_27576_30'
p5187
(dp5188
F130.0
g4
sF110.0
g3
ssS'dDocent_Contig_29538_128'
p5189
(dp5190
F120.0
g4
sF130.0
g3
ssS'dDocent_Contig_36344_16'
p5191
(dp5192
F100.0
g3
sF110.0
g4
ssS'dDocent_Contig_24850_59'
p5193
(dp5194
F120.0
g4
sF100.0
g3
ssS'dDocent_Contig_34980_35'
p5195
(dp5196
F130.0
g4
sF110.0
g3
ssS'dDocent_Contig_18197_47'
p5197
(dp5198
F120.0
g4
sF100.0
g3
ssS'dDocent_Contig_50160_108'
p5199
(dp5200
F120.0
g4
sF100.0
g3
ssS'dDocent_Contig_5700_22'
p5201
(dp5202
F130.0
g3
sF110.0
g4
ssS'dDocent_Contig_14683_12'
p5203
(dp5204
F120.0
g4
sF100.0
g3
ssS'dDocent_Contig_91211_91'
p5205
(dp5206
F120.0
g3
sF100.0
g4
ssS'dDocent_Contig_21685_29'
p5207
(dp5208
F120.0
g3
sF100.0
g4
ssS'dDocent_Contig_26965_15'
p5209
(dp5210
F120.0
g4
sF110.0
g3
ssS'dDocent_Contig_22182_46'
p5211
(dp5212
F120.0
g4
sF100.0
g3
ssS'dDocent_Contig_71793_50'
p5213
(dp5214
F120.0
g3
sF100.0
g4
ssS'dDocent_Contig_21436_19'
p5215
(dp5216
F130.0
g3
sF110.0
g4
ssS'dDocent_Contig_84908_99'
p5217
(dp5218
F120.0
g4
sF100.0
g3
ssS'dDocent_Contig_2615_48'
p5219
(dp5220
F120.0
g4
sF100.0
g3
ssS'dDocent_Contig_40023_114'
p5221
(dp5222
F120.0
g3
sF100.0
g4
ssS'dDocent_Contig_1153_19'
p5223
(dp5224
F100.0
g4
sF110.0
g3
ssS'dDocent_Contig_20574_26'
p5225
(dp5226
F130.0
g3
sF110.0
g4
ssS'dDocent_Contig_6171_14'
p5227
(dp5228
F130.0
g4
sF110.0
g3
ssS'dDocent_Contig_66300_20'
p5229
(dp5230
F120.0
g4
sF100.0
g3
ssS'dDocent_Contig_63944_46'
p5231
(dp5232
F120.0
g3
sF130.0
g4
ssS'dDocent_Contig_55277_10'
p5233
(dp5234
F130.0
g3
sF110.0
g4
ssS'dDocent_Contig_15698_133'
p5235
(dp5236
F120.0
g3
sF100.0
g4
ssS'dDocent_Contig_36854_7'
p5237
(dp5238
F130.0
g3
sF110.0
g4
ssS'dDocent_Contig_23073_22'
p5239
(dp5240
F130.0
g3
sF110.0
g4
ssS'dDocent_Contig_22809_43'
p5241
(dp5242
F130.0
g3
sF110.0
g4
ssS'dDocent_Contig_35667_22'
p5243
(dp5244
F120.0
g4
sF100.0
g3
ssS'dDocent_Contig_29197_25'
p5245
(dp5246
F100.0
g3
sF110.0
g4
ssS'dDocent_Contig_27827_44'
p5247
(dp5248
F130.0
g4
sF110.0
g3
ssS'dDocent_Contig_10480_25'
p5249
(dp5250
F130.0
g3
sF110.0
g4
ssS'dDocent_Contig_57955_46'
p5251
(dp5252
F120.0
g3
sF100.0
g4
ssS'dDocent_Contig_6455_56'
p5253
(dp5254
F120.0
g4
sF100.0
g3
ssS'dDocent_Contig_41395_47'
p5255
(dp5256
F120.0
g4
sF130.0
g3
ssS'dDocent_Contig_75925_33'
p5257
(dp5258
F130.0
g3
sF110.0
g4
ssS'dDocent_Contig_20943_27'
p5259
(dp5260
F130.0
g4
sF110.0
g3
ssS'dDocent_Contig_47993_37'
p5261
(dp5262
F130.0
g3
sF110.0
g4
ssS'dDocent_Contig_12164_23'
p5263
(dp5264
F130.0
g4
sF110.0
g3
ssS'dDocent_Contig_1293_39'
p5265
(dp5266
F130.0
g4
sF110.0
g3
ssS'dDocent_Contig_30947_23'
p5267
(dp5268
F130.0
g4
sF110.0
g3
ssS'dDocent_Contig_75867_103'
p5269
(dp5270
F130.0
g4
sF110.0
g3
ssS'dDocent_Contig_36614_57'
p5271
(dp5272
F130.0
g3
sF110.0
g4
ssS'dDocent_Contig_13248_13'
p5273
(dp5274
F100.0
g4
sF110.0
g3
ssS'dDocent_Contig_66936_37'
p5275
(dp5276
F120.0
g3
sF100.0
g4
ssS'dDocent_Contig_10794_20'
p5277
(dp5278
F120.0
g4
sF100.0
g3
ssS'dDocent_Contig_5138_20'
p5279
(dp5280
F130.0
g4
sF110.0
g3
ssS'dDocent_Contig_1113_19'
p5281
(dp5282
F120.0
g3
sF100.0
g4
ssS'dDocent_Contig_8191_53'
p5283
(dp5284
F130.0
g4
sF100.0
g3
ssS'dDocent_Contig_47236_55'
p5285
(dp5286
F130.0
g4
sF110.0
g3
ssS'dDocent_Contig_42376_12'
p5287
(dp5288
F120.0
g3
sF100.0
g4
ssS'dDocent_Contig_16536_14'
p5289
(dp5290
F100.0
g3
sF110.0
g4
ssS'dDocent_Contig_79705_8'
p5291
(dp5292
F120.0
g3
sF100.0
g4
ssS'dDocent_Contig_32588_28'
p5293
(dp5294
F130.0
g3
sF110.0
g4
ssS'dDocent_Contig_38092_8'
p5295
(dp5296
F130.0
g3
sF110.0
g4
ssS'dDocent_Contig_13447_68'
p5297
(dp5298
F130.0
g3
sF110.0
g4
ssS'dDocent_Contig_58230_66'
p5299
(dp5300
F130.0
g3
sF100.0
g4
ssS'dDocent_Contig_13979_22'
p5301
(dp5302
F130.0
g4
sF110.0
g3
ssS'dDocent_Contig_12554_52'
p5303
(dp5304
F120.0
g4
sF110.0
g3
ssS'dDocent_Contig_20061_11'
p5305
(dp5306
F130.0
g4
sF110.0
g3
ssS'dDocent_Contig_5498_21'
p5307
(dp5308
F120.0
g3
sF100.0
g4
ssS'dDocent_Contig_29419_31'
p5309
(dp5310
F130.0
g4
sF110.0
g3
ssS'dDocent_Contig_8734_21'
p5311
(dp5312
F130.0
g3
sF110.0
g4
ssS'dDocent_Contig_30201_128'
p5313
(dp5314
F120.0
g3
sF100.0
g4
ssS'dDocent_Contig_7763_8'
p5315
(dp5316
F130.0
g4
sF110.0
g3
ssS'dDocent_Contig_68814_56'
p5317
(dp5318
F130.0
g4
sF110.0
g3
ssS'dDocent_Contig_29580_121'
p5319
(dp5320
F120.0
g4
sF100.0
g3
ssS'dDocent_Contig_2811_31'
p5321
(dp5322
F120.0
g3
sF100.0
g4
ssS'dDocent_Contig_40513_21'
p5323
(dp5324
F130.0
g4
sF110.0
g3
ssS'dDocent_Contig_29857_20'
p5325
(dp5326
F120.0
g4
sF100.0
g3
ssS'dDocent_Contig_52492_28'
p5327
(dp5328
F100.0
g3
sF110.0
g4
ssS'dDocent_Contig_29196_22'
p5329
(dp5330
F130.0
g3
sF110.0
g4
ssS'dDocent_Contig_27486_39'
p5331
(dp5332
F100.0
g3
sF110.0
g4
ssS'dDocent_Contig_6780_53'
p5333
(dp5334
F130.0
g4
sF100.0
g3
ssS'dDocent_Contig_32912_13'
p5335
(dp5336
F130.0
g4
sF100.0
g3
ssS'dDocent_Contig_3200_8'
p5337
(dp5338
F120.0
g3
sF100.0
g4
ssS'dDocent_Contig_59709_70'
p5339
(dp5340
F130.0
g3
sF110.0
g4
ssS'dDocent_Contig_21441_18'
p5341
(dp5342
F130.0
g4
sF110.0
g3
ssS'dDocent_Contig_2129_30'
p5343
(dp5344
F130.0
g3
sF110.0
g4
ssS'dDocent_Contig_26997_24'
p5345
(dp5346
F130.0
g4
sF110.0
g3
ssS'dDocent_Contig_78964_9'
p5347
(dp5348
F130.0
g4
sF100.0
g3
ssS'dDocent_Contig_47963_22'
p5349
(dp5350
F130.0
g3
sF110.0
g4
ssS'dDocent_Contig_6103_65'
p5351
(dp5352
F120.0
g3
sF100.0
g4
ssS'dDocent_Contig_9425_46'
p5353
(dp5354
F130.0
g3
sF110.0
g4
ssS'dDocent_Contig_20910_8'
p5355
(dp5356
F120.0
g3
sF110.0
g4
ssS'dDocent_Contig_17123_11'
p5357
(dp5358
F130.0
g4
sF110.0
g3
ssS'dDocent_Contig_21389_28'
p5359
(dp5360
F120.0
g3
sF100.0
g4
ssS'dDocent_Contig_9074_14'
p5361
(dp5362
F120.0
g3
sF130.0
g4
ssS'dDocent_Contig_7153_25'
p5363
(dp5364
F130.0
g4
sF110.0
g3
ssS'dDocent_Contig_46442_63'
p5365
(dp5366
F130.0
g4
sF110.0
g3
ssS'dDocent_Contig_20816_10'
p5367
(dp5368
F100.0
g3
sF110.0
g4
ssS'dDocent_Contig_1310_15'
p5369
(dp5370
F100.0
g4
sF110.0
g3
ssS'dDocent_Contig_44067_10'
p5371
(dp5372
F130.0
g4
sF110.0
g3
ssS'dDocent_Contig_3977_101'
p5373
(dp5374
F120.0
g3
sF100.0
g4
ssS'dDocent_Contig_10418_7'
p5375
(dp5376
F130.0
g4
sF110.0
g3
ssS'dDocent_Contig_42919_8'
p5377
(dp5378
F120.0
g3
sF130.0
g4
ssS'dDocent_Contig_69435_20'
p5379
(dp5380
F120.0
g3
sF100.0
g4
ssS'dDocent_Contig_5267_27'
p5381
(dp5382
F130.0
g3
sF110.0
g4
ssS'dDocent_Contig_44586_40'
p5383
(dp5384
F100.0
g3
sF110.0
g4
ssS'dDocent_Contig_14973_8'
p5385
(dp5386
F130.0
g3
sF110.0
g4
ssS'dDocent_Contig_2564_59'
p5387
(dp5388
F130.0
g4
sF100.0
g3
ssS'dDocent_Contig_75772_79'
p5389
(dp5390
F120.0
g4
sF100.0
g3
ssS'dDocent_Contig_1488_33'
p5391
(dp5392
F120.0
g4
sF100.0
g3
ss.