(dp0
S'dDocent_Contig_3483_7'
p1
(dp2
F130.0
S'scalloped'
p3
sF100.0
S'carolina'
p4
ssS'dDocent_Contig_35819_63'
p5
(dp6
F120.0
g4
sF100.0
g3
ssS'dDocent_Contig_25775_31'
p7
(dp8
F130.0
g3
sF110.0
g4
ssS'dDocent_Contig_66840_56'
p9
(dp10
F100.0
g3
sF110.0
g4
ssS'dDocent_Contig_18722_66'
p11
(dp12
F130.0
g3
sF110.0
g4
ssS'dDocent_Contig_61163_15'
p13
(dp14
F130.0
g3
sF110.0
g4
ssS'dDocent_Contig_34182_43'
p15
(dp16
F120.0
g3
sF100.0
g4
ssS'dDocent_Contig_37676_207'
p17
(dp18
F120.0
g3
sF100.0
g4
ssS'dDocent_Contig_6261_16'
p19
(dp20
F130.0
g4
sF110.0
g3
ssS'dDocent_Contig_78041_31'
p21
(dp22
F130.0
g4
sF110.0
g3
ssS'dDocent_Contig_93447_28'
p23
(dp24
F120.0
g4
sF100.0
g3
ssS'dDocent_Contig_39733_9'
p25
(dp26
F120.0
g4
sF130.0
g3
ssS'dDocent_Contig_17816_132'
p27
(dp28
F130.0
g4
sF110.0
g3
ssS'dDocent_Contig_12146_13'
p29
(dp30
F120.0
g3
sF100.0
g4
ssS'dDocent_Contig_45837_7'
p31
(dp32
F120.0
g3
sF110.0
g4
ssS'dDocent_Contig_28620_40'
p33
(dp34
F130.0
g4
sF110.0
g3
ssS'dDocent_Contig_852_156'
p35
(dp36
F120.0
g3
sF100.0
g4
ssS'dDocent_Contig_57024_70'
p37
(dp38
F130.0
g4
sF100.0
g3
ssS'dDocent_Contig_68275_7'
p39
(dp40
F120.0
g4
sF110.0
g3
ssS'dDocent_Contig_8527_19'
p41
(dp42
F120.0
g3
sF130.0
g4
ssS'dDocent_Contig_82448_13'
p43
(dp44
F120.0
g4
sF110.0
g3
ssS'dDocent_Contig_30512_49'
p45
(dp46
F120.0
g4
sF130.0
g3
ssS'dDocent_Contig_3824_66'
p47
(dp48
F130.0
g3
sF110.0
g4
ssS'dDocent_Contig_3336_38'
p49
(dp50
F100.0
g4
sF110.0
g3
ssS'dDocent_Contig_23115_68'
p51
(dp52
F120.0
g4
sF100.0
g3
ssS'dDocent_Contig_43132_41'
p53
(dp54
F120.0
g3
sF100.0
g4
ssS'dDocent_Contig_10069_118'
p55
(dp56
F120.0
g3
sF100.0
g4
ssS'dDocent_Contig_44276_35'
p57
(dp58
F120.0
g3
sF100.0
g4
ssS'dDocent_Contig_41494_23'
p59
(dp60
F130.0
g3
sF110.0
g4
ssS'dDocent_Contig_7718_26'
p61
(dp62
F120.0
g3
sF100.0
g4
ssS'dDocent_Contig_51790_72'
p63
(dp64
F120.0
g3
sF100.0
g4
ssS'dDocent_Contig_3512_33'
p65
(dp66
F130.0
g4
sF110.0
g3
ssS'dDocent_Contig_22636_16'
p67
(dp68
F120.0
g3
sF100.0
g4
ssS'dDocent_Contig_17241_52'
p69
(dp70
F130.0
g3
sF110.0
g4
ssS'dDocent_Contig_977_13'
p71
(dp72
F100.0
g3
sF110.0
g4
ssS'dDocent_Contig_39369_15'
p73
(dp74
F130.0
g3
sF110.0
g4
ssS'dDocent_Contig_33313_19'
p75
(dp76
F130.0
g4
sF110.0
g3
ssS'dDocent_Contig_32574_16'
p77
(dp78
F120.0
g3
sF130.0
g4
ssS'dDocent_Contig_22838_46'
p79
(dp80
F120.0
g4
sF100.0
g3
ssS'dDocent_Contig_4161_34'
p81
(dp82
F100.0
g4
sF110.0
g3
ssS'dDocent_Contig_83166_25'
p83
(dp84
F120.0
g4
sF100.0
g3
ssS'dDocent_Contig_6795_18'
p85
(dp86
F130.0
g4
sF110.0
g3
ssS'dDocent_Contig_170_120'
p87
(dp88
F130.0
g4
sF110.0
g3
ssS'dDocent_Contig_8723_9'
p89
(dp90
F120.0
g3
sF100.0
g4
ssS'dDocent_Contig_13327_53'
p91
(dp92
F100.0
g3
sF110.0
g4
ssS'dDocent_Contig_23865_13'
p93
(dp94
F120.0
g3
sF100.0
g4
ssS'dDocent_Contig_14546_79'
p95
(dp96
F130.0
g3
sF110.0
g4
ssS'dDocent_Contig_22718_21'
p97
(dp98
F130.0
g4
sF110.0
g3
ssS'dDocent_Contig_9676_58'
p99
(dp100
F120.0
g4
sF100.0
g3
ssS'dDocent_Contig_60933_69'
p101
(dp102
F130.0
g3
sF110.0
g4
ssS'dDocent_Contig_29728_32'
p103
(dp104
F130.0
g3
sF110.0
g4
ssS'dDocent_Contig_2800_117'
p105
(dp106
F130.0
g4
sF100.0
g3
ssS'dDocent_Contig_30334_9'
p107
(dp108
F120.0
g4
sF100.0
g3
ssS'dDocent_Contig_35191_43'
p109
(dp110
F100.0
g4
sF110.0
g3
ssS'dDocent_Contig_6326_37'
p111
(dp112
F100.0
g3
sF110.0
g4
ssS'dDocent_Contig_34785_7'
p113
(dp114
F130.0
g3
sF110.0
g4
ssS'dDocent_Contig_81810_55'
p115
(dp116
F130.0
g4
sF110.0
g3
ssS'dDocent_Contig_32232_41'
p117
(dp118
F120.0
g4
sF100.0
g3
ssS'dDocent_Contig_11049_27'
p119
(dp120
F120.0
g3
sF130.0
g4
ssS'dDocent_Contig_9433_46'
p121
(dp122
F130.0
g3
sF110.0
g4
ssS'dDocent_Contig_11653_61'
p123
(dp124
F120.0
g4
sF100.0
g3
ssS'dDocent_Contig_16312_41'
p125
(dp126
F130.0
g4
sF110.0
g3
ssS'dDocent_Contig_29572_56'
p127
(dp128
F120.0
g4
sF100.0
g3
ssS'dDocent_Contig_64908_54'
p129
(dp130
F120.0
g4
sF130.0
g3
ssS'dDocent_Contig_78676_46'
p131
(dp132
F100.0
g4
sF110.0
g3
ssS'dDocent_Contig_7549_58'
p133
(dp134
F120.0
g4
sF100.0
g3
ssS'dDocent_Contig_15898_56'
p135
(dp136
F130.0
g4
sF110.0
g3
ssS'dDocent_Contig_22545_42'
p137
(dp138
F130.0
g3
sF110.0
g4
ssS'dDocent_Contig_40516_42'
p139
(dp140
F100.0
g4
sF110.0
g3
ssS'dDocent_Contig_81773_12'
p141
(dp142
F120.0
g4
sF100.0
g3
ssS'dDocent_Contig_19413_11'
p143
(dp144
F130.0
g3
sF110.0
g4
ssS'dDocent_Contig_30178_33'
p145
(dp146
F130.0
g3
sF110.0
g4
ssS'dDocent_Contig_35523_16'
p147
(dp148
F130.0
g3
sF110.0
g4
ssS'dDocent_Contig_1560_11'
p149
(dp150
F130.0
g3
sF110.0
g4
ssS'dDocent_Contig_58144_23'
p151
(dp152
F130.0
g4
sF110.0
g3
ssS'dDocent_Contig_1658_62'
p153
(dp154
F120.0
g3
sF100.0
g4
ssS'dDocent_Contig_7314_70'
p155
(dp156
F130.0
g4
sF110.0
g3
ssS'dDocent_Contig_33589_29'
p157
(dp158
F120.0
g4
sF100.0
g3
ssS'dDocent_Contig_33867_155'
p159
(dp160
F130.0
g4
sF110.0
g3
ssS'dDocent_Contig_51049_10'
p161
(dp162
F120.0
g4
sF100.0
g3
ssS'dDocent_Contig_9726_14'
p163
(dp164
F130.0
g3
sF110.0
g4
ssS'dDocent_Contig_92744_29'
p165
(dp166
F120.0
g4
sF100.0
g3
ssS'dDocent_Contig_4279_29'
p167
(dp168
F120.0
g3
sF100.0
g4
ssS'dDocent_Contig_47830_16'
p169
(dp170
F120.0
g4
sF100.0
g3
ssS'dDocent_Contig_22260_23'
p171
(dp172
F120.0
g4
sF100.0
g3
ssS'dDocent_Contig_19938_63'
p173
(dp174
F130.0
g4
sF110.0
g3
ssS'dDocent_Contig_9972_11'
p175
(dp176
F120.0
g3
sF100.0
g4
ssS'dDocent_Contig_17824_16'
p177
(dp178
F130.0
g3
sF100.0
g4
ssS'dDocent_Contig_7688_33'
p179
(dp180
F120.0
g4
sF110.0
g3
ssS'dDocent_Contig_1612_20'
p181
(dp182
F120.0
g4
sF100.0
g3
ssS'dDocent_Contig_25969_120'
p183
(dp184
F130.0
g4
sF110.0
g3
ssS'dDocent_Contig_6143_38'
p185
(dp186
F130.0
g3
sF100.0
g4
ssS'dDocent_Contig_18122_27'
p187
(dp188
F130.0
g4
sF110.0
g3
ssS'dDocent_Contig_9323_24'
p189
(dp190
F120.0
g3
sF100.0
g4
ssS'dDocent_Contig_62518_36'
p191
(dp192
F130.0
g4
sF110.0
g3
ssS'dDocent_Contig_16099_142'
p193
(dp194
F130.0
g4
sF110.0
g3
ssS'dDocent_Contig_53868_30'
p195
(dp196
F130.0
g4
sF110.0
g3
ssS'dDocent_Contig_43970_23'
p197
(dp198
F130.0
g3
sF110.0
g4
ssS'dDocent_Contig_14554_56'
p199
(dp200
F100.0
g4
sF110.0
g3
ssS'dDocent_Contig_52538_33'
p201
(dp202
F120.0
g3
sF100.0
g4
ssS'dDocent_Contig_61956_59'
p203
(dp204
F120.0
g4
sF130.0
g3
ssS'dDocent_Contig_25300_31'
p205
(dp206
F120.0
g3
sF100.0
g4
ssS'dDocent_Contig_2764_96'
p207
(dp208
F130.0
g4
sF110.0
g3
ssS'dDocent_Contig_61453_48'
p209
(dp210
F130.0
g3
sF110.0
g4
ssS'dDocent_Contig_24091_111'
p211
(dp212
F120.0
g3
sF100.0
g4
ssS'dDocent_Contig_29982_18'
p213
(dp214
F120.0
g4
sF100.0
g3
ssS'dDocent_Contig_15426_29'
p215
(dp216
F120.0
g3
sF100.0
g4
ssS'dDocent_Contig_38191_30'
p217
(dp218
F120.0
g3
sF110.0
g4
ssS'dDocent_Contig_15284_192'
p219
(dp220
F120.0
g3
sF130.0
g4
ssS'dDocent_Contig_8462_57'
p221
(dp222
F120.0
g4
sF130.0
g3
ssS'dDocent_Contig_2993_77'
p223
(dp224
F120.0
g3
sF100.0
g4
ssS'dDocent_Contig_2942_34'
p225
(dp226
F130.0
g3
sF110.0
g4
ssS'dDocent_Contig_10139_8'
p227
(dp228
F120.0
g4
sF100.0
g3
ssS'dDocent_Contig_28095_47'
p229
(dp230
F100.0
g3
sF110.0
g4
ssS'dDocent_Contig_37313_32'
p231
(dp232
F100.0
g3
sF110.0
g4
ssS'dDocent_Contig_80129_43'
p233
(dp234
F130.0
g4
sF110.0
g3
ssS'dDocent_Contig_2650_26'
p235
(dp236
F130.0
g4
sF110.0
g3
ssS'dDocent_Contig_21884_15'
p237
(dp238
F120.0
g3
sF110.0
g4
ssS'dDocent_Contig_16869_37'
p239
(dp240
F130.0
g3
sF110.0
g4
ssS'dDocent_Contig_57541_31'
p241
(dp242
F120.0
g3
sF130.0
g4
ssS'dDocent_Contig_19713_8'
p243
(dp244
F120.0
g3
sF110.0
g4
ssS'dDocent_Contig_31171_63'
p245
(dp246
F120.0
g3
sF100.0
g4
ssS'dDocent_Contig_10309_14'
p247
(dp248
F130.0
g4
sF110.0
g3
ssS'dDocent_Contig_36643_54'
p249
(dp250
F120.0
g3
sF100.0
g4
ssS'dDocent_Contig_25459_9'
p251
(dp252
F120.0
g3
sF100.0
g4
ssS'dDocent_Contig_51047_16'
p253
(dp254
F120.0
g3
sF100.0
g4
ssS'dDocent_Contig_1048_14'
p255
(dp256
F100.0
g3
sF110.0
g4
ssS'dDocent_Contig_92395_11'
p257
(dp258
F120.0
g4
sF100.0
g3
ssS'dDocent_Contig_59733_28'
p259
(dp260
F100.0
g3
sF110.0
g4
ssS'dDocent_Contig_23310_86'
p261
(dp262
F120.0
g3
sF100.0
g4
ssS'dDocent_Contig_56607_12'
p263
(dp264
F120.0
g4
sF100.0
g3
ssS'dDocent_Contig_2520_8'
p265
(dp266
F120.0
g4
sF100.0
g3
ssS'dDocent_Contig_35044_33'
p267
(dp268
F130.0
g3
sF100.0
g4
ssS'dDocent_Contig_5146_41'
p269
(dp270
F120.0
g4
sF110.0
g3
ssS'dDocent_Contig_55632_40'
p271
(dp272
F120.0
g3
sF100.0
g4
ssS'dDocent_Contig_15008_15'
p273
(dp274
F100.0
g4
sF110.0
g3
ssS'dDocent_Contig_8095_51'
p275
(dp276
F120.0
g3
sF100.0
g4
ssS'dDocent_Contig_29215_55'
p277
(dp278
F130.0
g4
sF110.0
g3
ssS'dDocent_Contig_29660_32'
p279
(dp280
F100.0
g4
sF110.0
g3
ssS'dDocent_Contig_66536_20'
p281
(dp282
F120.0
g4
sF100.0
g3
ssS'dDocent_Contig_2484_45'
p283
(dp284
F120.0
g3
sF100.0
g4
ssS'dDocent_Contig_80145_77'
p285
(dp286
F130.0
g3
sF110.0
g4
ssS'dDocent_Contig_45599_51'
p287
(dp288
F120.0
g3
sF100.0
g4
ssS'dDocent_Contig_5872_15'
p289
(dp290
F130.0
g4
sF100.0
g3
ssS'dDocent_Contig_19078_59'
p291
(dp292
F120.0
g3
sF100.0
g4
ssS'dDocent_Contig_20235_16'
p293
(dp294
F120.0
g3
sF100.0
g4
ssS'dDocent_Contig_24956_24'
p295
(dp296
F130.0
g4
sF110.0
g3
ssS'dDocent_Contig_34384_73'
p297
(dp298
F130.0
g4
sF110.0
g3
ssS'dDocent_Contig_49813_57'
p299
(dp300
F120.0
g3
sF100.0
g4
ssS'dDocent_Contig_37025_40'
p301
(dp302
F120.0
g4
sF100.0
g3
ssS'dDocent_Contig_14483_102'
p303
(dp304
F130.0
g4
sF110.0
g3
ssS'dDocent_Contig_62319_9'
p305
(dp306
F120.0
g4
sF130.0
g3
ssS'dDocent_Contig_4872_135'
p307
(dp308
F130.0
g4
sF110.0
g3
ssS'dDocent_Contig_76713_18'
p309
(dp310
F130.0
g3
sF110.0
g4
ssS'dDocent_Contig_14635_89'
p311
(dp312
F130.0
g3
sF110.0
g4
ssS'dDocent_Contig_24159_27'
p313
(dp314
F130.0
g3
sF110.0
g4
ssS'dDocent_Contig_32918_17'
p315
(dp316
F120.0
g4
sF100.0
g3
ssS'dDocent_Contig_8569_8'
p317
(dp318
F120.0
g4
sF100.0
g3
ssS'dDocent_Contig_15446_14'
p319
(dp320
F120.0
g4
sF100.0
g3
ssS'dDocent_Contig_16567_20'
p321
(dp322
F130.0
g3
sF110.0
g4
ssS'dDocent_Contig_49381_58'
p323
(dp324
F130.0
g3
sF110.0
g4
ssS'dDocent_Contig_13017_157'
p325
(dp326
F100.0
g3
sF110.0
g4
ssS'dDocent_Contig_18613_29'
p327
(dp328
F130.0
g4
sF110.0
g3
ssS'dDocent_Contig_42648_25'
p329
(dp330
F130.0
g4
sF110.0
g3
ssS'dDocent_Contig_87140_17'
p331
(dp332
F120.0
g4
sF100.0
g3
ssS'dDocent_Contig_44533_22'
p333
(dp334
F120.0
g3
sF100.0
g4
ssS'dDocent_Contig_54353_21'
p335
(dp336
F130.0
g3
sF110.0
g4
ssS'dDocent_Contig_16771_26'
p337
(dp338
F130.0
g4
sF100.0
g3
ssS'dDocent_Contig_76726_26'
p339
(dp340
F130.0
g4
sF110.0
g3
ssS'dDocent_Contig_16897_14'
p341
(dp342
F120.0
g3
sF130.0
g4
ssS'dDocent_Contig_86132_45'
p343
(dp344
F120.0
g4
sF100.0
g3
ssS'dDocent_Contig_6852_93'
p345
(dp346
F100.0
g3
sF110.0
g4
ssS'dDocent_Contig_23755_31'
p347
(dp348
F130.0
g3
sF110.0
g4
ssS'dDocent_Contig_12532_69'
p349
(dp350
F120.0
g3
sF100.0
g4
ssS'dDocent_Contig_5113_27'
p351
(dp352
F120.0
g3
sF100.0
g4
ssS'dDocent_Contig_26528_77'
p353
(dp354
F120.0
g3
sF100.0
g4
ssS'dDocent_Contig_3383_44'
p355
(dp356
F120.0
g3
sF100.0
g4
ssS'dDocent_Contig_28247_32'
p357
(dp358
F130.0
g3
sF110.0
g4
ssS'dDocent_Contig_60110_48'
p359
(dp360
F120.0
g3
sF100.0
g4
ssS'dDocent_Contig_9989_49'
p361
(dp362
F120.0
g3
sF110.0
g4
ssS'dDocent_Contig_10169_18'
p363
(dp364
F120.0
g4
sF100.0
g3
ssS'dDocent_Contig_924_34'
p365
(dp366
F120.0
g3
sF100.0
g4
ssS'dDocent_Contig_36739_8'
p367
(dp368
F120.0
g4
sF100.0
g3
ssS'dDocent_Contig_15689_38'
p369
(dp370
F130.0
g3
sF110.0
g4
ssS'dDocent_Contig_16330_20'
p371
(dp372
F120.0
g3
sF100.0
g4
ssS'dDocent_Contig_35719_8'
p373
(dp374
F120.0
g3
sF100.0
g4
ssS'dDocent_Contig_22338_45'
p375
(dp376
F130.0
g4
sF110.0
g3
ssS'dDocent_Contig_27984_24'
p377
(dp378
F120.0
g3
sF100.0
g4
ssS'dDocent_Contig_13078_31'
p379
(dp380
F100.0
g3
sF110.0
g4
ssS'dDocent_Contig_18679_35'
p381
(dp382
F130.0
g3
sF110.0
g4
ssS'dDocent_Contig_57548_22'
p383
(dp384
F130.0
g3
sF110.0
g4
ssS'dDocent_Contig_480_36'
p385
(dp386
F120.0
g3
sF100.0
g4
ssS'dDocent_Contig_71259_40'
p387
(dp388
F130.0
g4
sF110.0
g3
ssS'dDocent_Contig_9271_64'
p389
(dp390
F120.0
g3
sF100.0
g4
ssS'dDocent_Contig_7391_37'
p391
(dp392
F130.0
g3
sF110.0
g4
ssS'dDocent_Contig_4101_28'
p393
(dp394
F120.0
g4
sF100.0
g3
ssS'dDocent_Contig_62621_19'
p395
(dp396
F120.0
g4
sF100.0
g3
ssS'dDocent_Contig_3446_149'
p397
(dp398
F100.0
g3
sF110.0
g4
ssS'dDocent_Contig_14275_149'
p399
(dp400
F130.0
g4
sF110.0
g3
ssS'dDocent_Contig_2846_19'
p401
(dp402
F120.0
g4
sF100.0
g3
ssS'dDocent_Contig_60992_14'
p403
(dp404
F130.0
g4
sF110.0
g3
ssS'dDocent_Contig_65905_11'
p405
(dp406
F120.0
g4
sF100.0
g3
ssS'dDocent_Contig_12777_14'
p407
(dp408
F120.0
g3
sF100.0
g4
ssS'dDocent_Contig_5191_107'
p409
(dp410
F130.0
g4
sF110.0
g3
ssS'dDocent_Contig_29653_35'
p411
(dp412
F120.0
g3
sF100.0
g4
ssS'dDocent_Contig_79580_35'
p413
(dp414
F100.0
g3
sF110.0
g4
ssS'dDocent_Contig_21809_48'
p415
(dp416
F130.0
g4
sF110.0
g3
ssS'dDocent_Contig_10913_77'
p417
(dp418
F120.0
g3
sF100.0
g4
ssS'dDocent_Contig_8869_54'
p419
(dp420
F130.0
g4
sF110.0
g3
ssS'dDocent_Contig_41205_52'
p421
(dp422
F130.0
g3
sF110.0
g4
ssS'dDocent_Contig_49504_9'
p423
(dp424
F100.0
g4
sF110.0
g3
ssS'dDocent_Contig_71334_17'
p425
(dp426
F120.0
g3
sF100.0
g4
ssS'dDocent_Contig_3285_52'
p427
(dp428
F100.0
g4
sF110.0
g3
ssS'dDocent_Contig_19859_109'
p429
(dp430
F130.0
g4
sF110.0
g3
ssS'dDocent_Contig_11479_7'
p431
(dp432
F100.0
g3
sF110.0
g4
ssS'dDocent_Contig_3687_31'
p433
(dp434
F100.0
g4
sF110.0
g3
ssS'dDocent_Contig_51605_24'
p435
(dp436
F130.0
g3
sF110.0
g4
ssS'dDocent_Contig_68110_31'
p437
(dp438
F130.0
g3
sF110.0
g4
ssS'dDocent_Contig_10413_12'
p439
(dp440
F130.0
g4
sF110.0
g3
ssS'dDocent_Contig_33060_83'
p441
(dp442
F120.0
g3
sF100.0
g4
ssS'dDocent_Contig_10099_55'
p443
(dp444
F100.0
g3
sF110.0
g4
ssS'dDocent_Contig_65938_139'
p445
(dp446
F120.0
g3
sF100.0
g4
ssS'dDocent_Contig_35156_11'
p447
(dp448
F130.0
g3
sF110.0
g4
ssS'dDocent_Contig_6306_30'
p449
(dp450
F120.0
g4
sF100.0
g3
ssS'dDocent_Contig_21727_11'
p451
(dp452
F120.0
g4
sF130.0
g3
ssS'dDocent_Contig_71426_29'
p453
(dp454
F130.0
g4
sF110.0
g3
ssS'dDocent_Contig_90198_78'
p455
(dp456
F120.0
g3
sF100.0
g4
ssS'dDocent_Contig_50713_113'
p457
(dp458
F130.0
g4
sF110.0
g3
ssS'dDocent_Contig_26223_10'
p459
(dp460
F130.0
g4
sF110.0
g3
ssS'dDocent_Contig_93713_141'
p461
(dp462
F130.0
g4
sF110.0
g3
ssS'dDocent_Contig_34009_72'
p463
(dp464
F120.0
g3
sF100.0
g4
ssS'dDocent_Contig_19363_16'
p465
(dp466
F130.0
g4
sF110.0
g3
ssS'dDocent_Contig_12947_10'
p467
(dp468
F120.0
g3
sF100.0
g4
ssS'dDocent_Contig_11198_22'
p469
(dp470
F120.0
g3
sF100.0
g4
ssS'dDocent_Contig_15809_47'
p471
(dp472
F120.0
g4
sF100.0
g3
ssS'dDocent_Contig_4089_17'
p473
(dp474
F120.0
g4
sF110.0
g3
ssS'dDocent_Contig_34539_29'
p475
(dp476
F130.0
g3
sF110.0
g4
ssS'dDocent_Contig_51833_36'
p477
(dp478
F130.0
g4
sF110.0
g3
ssS'dDocent_Contig_26544_28'
p479
(dp480
F130.0
g4
sF100.0
g3
ssS'dDocent_Contig_20983_18'
p481
(dp482
F120.0
g3
sF100.0
g4
ssS'dDocent_Contig_61097_8'
p483
(dp484
F130.0
g3
sF110.0
g4
ssS'dDocent_Contig_62450_7'
p485
(dp486
F100.0
g3
sF110.0
g4
ssS'dDocent_Contig_68606_9'
p487
(dp488
F120.0
g4
sF100.0
g3
ssS'dDocent_Contig_11969_13'
p489
(dp490
F120.0
g3
sF100.0
g4
ssS'dDocent_Contig_32623_158'
p491
(dp492
F120.0
g4
sF100.0
g3
ssS'dDocent_Contig_26364_67'
p493
(dp494
F130.0
g3
sF110.0
g4
ssS'dDocent_Contig_31012_26'
p495
(dp496
F130.0
g4
sF110.0
g3
ssS'dDocent_Contig_80585_36'
p497
(dp498
F120.0
g4
sF110.0
g3
ssS'dDocent_Contig_6536_27'
p499
(dp500
F120.0
g3
sF100.0
g4
ssS'dDocent_Contig_15807_71'
p501
(dp502
F130.0
g3
sF110.0
g4
ssS'dDocent_Contig_3364_10'
p503
(dp504
F130.0
g4
sF110.0
g3
ssS'dDocent_Contig_70238_7'
p505
(dp506
F120.0
g3
sF100.0
g4
ssS'dDocent_Contig_80774_7'
p507
(dp508
F120.0
g3
sF110.0
g4
ssS'dDocent_Contig_11906_19'
p509
(dp510
F120.0
g4
sF100.0
g3
ssS'dDocent_Contig_88466_57'
p511
(dp512
F120.0
g3
sF100.0
g4
ssS'dDocent_Contig_26394_14'
p513
(dp514
F120.0
g4
sF130.0
g3
ssS'dDocent_Contig_11204_23'
p515
(dp516
F120.0
g3
sF100.0
g4
ssS'dDocent_Contig_27018_17'
p517
(dp518
F130.0
g4
sF110.0
g3
ssS'dDocent_Contig_46291_31'
p519
(dp520
F130.0
g3
sF110.0
g4
ssS'dDocent_Contig_3350_62'
p521
(dp522
F130.0
g3
sF110.0
g4
ssS'dDocent_Contig_14204_104'
p523
(dp524
F120.0
g4
sF100.0
g3
ssS'dDocent_Contig_10974_12'
p525
(dp526
F120.0
g4
sF100.0
g3
ssS'dDocent_Contig_56135_59'
p527
(dp528
F130.0
g4
sF110.0
g3
ssS'dDocent_Contig_2170_66'
p529
(dp530
F120.0
g4
sF110.0
g3
ssS'dDocent_Contig_44896_30'
p531
(dp532
F120.0
g4
sF100.0
g3
ssS'dDocent_Contig_45562_22'
p533
(dp534
F130.0
g3
sF110.0
g4
ssS'dDocent_Contig_23418_13'
p535
(dp536
F130.0
g3
sF110.0
g4
ssS'dDocent_Contig_85476_9'
p537
(dp538
F120.0
g4
sF100.0
g3
ssS'dDocent_Contig_3203_62'
p539
(dp540
F130.0
g4
sF110.0
g3
ssS'dDocent_Contig_45743_10'
p541
(dp542
F130.0
g4
sF110.0
g3
ssS'dDocent_Contig_50084_34'
p543
(dp544
F130.0
g3
sF110.0
g4
ssS'dDocent_Contig_20313_47'
p545
(dp546
F120.0
g4
sF110.0
g3
ssS'dDocent_Contig_20679_55'
p547
(dp548
F130.0
g4
sF110.0
g3
ssS'dDocent_Contig_11892_138'
p549
(dp550
F120.0
g3
sF100.0
g4
ssS'dDocent_Contig_820_49'
p551
(dp552
F120.0
g4
sF100.0
g3
ssS'dDocent_Contig_68049_96'
p553
(dp554
F120.0
g4
sF100.0
g3
ssS'dDocent_Contig_87619_7'
p555
(dp556
F100.0
g3
sF110.0
g4
ssS'dDocent_Contig_246_21'
p557
(dp558
F130.0
g3
sF110.0
g4
ssS'dDocent_Contig_76406_38'
p559
(dp560
F100.0
g4
sF110.0
g3
ssS'dDocent_Contig_1924_69'
p561
(dp562
F120.0
g4
sF100.0
g3
ssS'dDocent_Contig_88956_12'
p563
(dp564
F130.0
g4
sF110.0
g3
ssS'dDocent_Contig_17179_7'
p565
(dp566
F120.0
g4
sF100.0
g3
ssS'dDocent_Contig_42063_22'
p567
(dp568
F130.0
g4
sF100.0
g3
ssS'dDocent_Contig_12869_21'
p569
(dp570
F120.0
g3
sF100.0
g4
ssS'dDocent_Contig_7311_38'
p571
(dp572
F120.0
g3
sF100.0
g4
ssS'dDocent_Contig_58453_15'
p573
(dp574
F130.0
g3
sF110.0
g4
ssS'dDocent_Contig_12846_43'
p575
(dp576
F120.0
g3
sF130.0
g4
ssS'dDocent_Contig_62304_33'
p577
(dp578
F120.0
g3
sF100.0
g4
ssS'dDocent_Contig_84020_144'
p579
(dp580
F120.0
g3
sF110.0
g4
ssS'dDocent_Contig_9827_61'
p581
(dp582
F130.0
g4
sF110.0
g3
ssS'dDocent_Contig_52063_15'
p583
(dp584
F120.0
g3
sF100.0
g4
ssS'dDocent_Contig_56836_44'
p585
(dp586
F120.0
g4
sF100.0
g3
ssS'dDocent_Contig_12310_21'
p587
(dp588
F120.0
g3
sF100.0
g4
ssS'dDocent_Contig_623_41'
p589
(dp590
F120.0
g4
sF100.0
g3
ssS'dDocent_Contig_66409_29'
p591
(dp592
F120.0
g3
sF100.0
g4
ssS'dDocent_Contig_4708_18'
p593
(dp594
F120.0
g3
sF100.0
g4
ssS'dDocent_Contig_16834_65'
p595
(dp596
F100.0
g4
sF110.0
g3
ssS'dDocent_Contig_24958_11'
p597
(dp598
F120.0
g4
sF110.0
g3
ssS'dDocent_Contig_10256_15'
p599
(dp600
F130.0
g3
sF110.0
g4
ssS'dDocent_Contig_38262_16'
p601
(dp602
F130.0
g3
sF110.0
g4
ssS'dDocent_Contig_20546_109'
p603
(dp604
F130.0
g3
sF110.0
g4
ssS'dDocent_Contig_21944_26'
p605
(dp606
F120.0
g3
sF110.0
g4
ssS'dDocent_Contig_29652_29'
p607
(dp608
F120.0
g4
sF100.0
g3
ssS'dDocent_Contig_22740_12'
p609
(dp610
F130.0
g3
sF110.0
g4
ssS'dDocent_Contig_14648_133'
p611
(dp612
F130.0
g3
sF110.0
g4
ssS'dDocent_Contig_89010_111'
p613
(dp614
F100.0
g3
sF110.0
g4
ssS'dDocent_Contig_16674_44'
p615
(dp616
F130.0
g4
sF110.0
g3
ssS'dDocent_Contig_57772_31'
p617
(dp618
F120.0
g4
sF100.0
g3
ssS'dDocent_Contig_56999_14'
p619
(dp620
F130.0
g4
sF110.0
g3
ssS'dDocent_Contig_78280_63'
p621
(dp622
F100.0
g3
sF110.0
g4
ssS'dDocent_Contig_6983_10'
p623
(dp624
F130.0
g3
sF110.0
g4
ssS'dDocent_Contig_47968_63'
p625
(dp626
F120.0
g4
sF100.0
g3
ssS'dDocent_Contig_39195_58'
p627
(dp628
F130.0
g3
sF110.0
g4
ssS'dDocent_Contig_31586_50'
p629
(dp630
F120.0
g3
sF100.0
g4
ssS'dDocent_Contig_7578_49'
p631
(dp632
F120.0
g3
sF110.0
g4
ssS'dDocent_Contig_229_44'
p633
(dp634
F100.0
g4
sF110.0
g3
ssS'dDocent_Contig_83514_115'
p635
(dp636
F120.0
g3
sF100.0
g4
ssS'dDocent_Contig_49944_43'
p637
(dp638
F120.0
g3
sF100.0
g4
ssS'dDocent_Contig_66486_25'
p639
(dp640
F100.0
g3
sF110.0
g4
ssS'dDocent_Contig_45399_65'
p641
(dp642
F120.0
g3
sF130.0
g4
ssS'dDocent_Contig_56545_7'
p643
(dp644
F120.0
g4
sF100.0
g3
ssS'dDocent_Contig_21009_98'
p645
(dp646
F120.0
g3
sF100.0
g4
ssS'dDocent_Contig_5919_48'
p647
(dp648
F120.0
g3
sF100.0
g4
ssS'dDocent_Contig_43353_25'
p649
(dp650
F120.0
g3
sF100.0
g4
ssS'dDocent_Contig_9010_53'
p651
(dp652
F130.0
g3
sF110.0
g4
ssS'dDocent_Contig_24711_34'
p653
(dp654
F130.0
g3
sF110.0
g4
ssS'dDocent_Contig_12326_30'
p655
(dp656
F120.0
g3
sF100.0
g4
ssS'dDocent_Contig_44464_24'
p657
(dp658
F120.0
g3
sF100.0
g4
ssS'dDocent_Contig_92908_49'
p659
(dp660
F130.0
g3
sF110.0
g4
ssS'dDocent_Contig_8907_70'
p661
(dp662
F120.0
g3
sF100.0
g4
ssS'dDocent_Contig_38018_86'
p663
(dp664
F130.0
g4
sF110.0
g3
ssS'dDocent_Contig_25000_48'
p665
(dp666
F130.0
g3
sF110.0
g4
ssS'dDocent_Contig_29096_48'
p667
(dp668
F120.0
g3
sF100.0
g4
ssS'dDocent_Contig_6698_16'
p669
(dp670
F120.0
g3
sF100.0
g4
ssS'dDocent_Contig_78085_99'
p671
(dp672
F130.0
g3
sF110.0
g4
ssS'dDocent_Contig_6693_7'
p673
(dp674
F100.0
g3
sF110.0
g4
ssS'dDocent_Contig_40063_24'
p675
(dp676
F120.0
g4
sF100.0
g3
ssS'dDocent_Contig_23739_75'
p677
(dp678
F120.0
g3
sF110.0
g4
ssS'dDocent_Contig_42741_29'
p679
(dp680
F120.0
g3
sF100.0
g4
ssS'dDocent_Contig_94370_9'
p681
(dp682
F120.0
g3
sF100.0
g4
ssS'dDocent_Contig_93828_43'
p683
(dp684
F130.0
g3
sF110.0
g4
ssS'dDocent_Contig_2634_40'
p685
(dp686
F130.0
g4
sF100.0
g3
ssS'dDocent_Contig_86258_47'
p687
(dp688
F120.0
g3
sF130.0
g4
ssS'dDocent_Contig_14580_45'
p689
(dp690
F130.0
g4
sF110.0
g3
ssS'dDocent_Contig_78922_174'
p691
(dp692
F120.0
g4
sF100.0
g3
ssS'dDocent_Contig_4281_18'
p693
(dp694
F130.0
g3
sF100.0
g4
ssS'dDocent_Contig_6424_57'
p695
(dp696
F120.0
g3
sF100.0
g4
ssS'dDocent_Contig_1502_11'
p697
(dp698
F120.0
g4
sF100.0
g3
ssS'dDocent_Contig_48622_30'
p699
(dp700
F120.0
g4
sF130.0
g3
ssS'dDocent_Contig_9089_79'
p701
(dp702
F130.0
g3
sF110.0
g4
ssS'dDocent_Contig_40085_35'
p703
(dp704
F130.0
g4
sF110.0
g3
ssS'dDocent_Contig_971_17'
p705
(dp706
F120.0
g3
sF110.0
g4
ssS'dDocent_Contig_14386_29'
p707
(dp708
F130.0
g3
sF110.0
g4
ssS'dDocent_Contig_59031_25'
p709
(dp710
F130.0
g3
sF110.0
g4
ssS'dDocent_Contig_56258_42'
p711
(dp712
F120.0
g3
sF100.0
g4
ssS'dDocent_Contig_9116_94'
p713
(dp714
F120.0
g4
sF100.0
g3
ssS'dDocent_Contig_2394_8'
p715
(dp716
F130.0
g3
sF110.0
g4
ssS'dDocent_Contig_71978_24'
p717
(dp718
F120.0
g4
sF100.0
g3
ssS'dDocent_Contig_9281_9'
p719
(dp720
F100.0
g4
sF110.0
g3
ssS'dDocent_Contig_5427_47'
p721
(dp722
F120.0
g3
sF100.0
g4
ssS'dDocent_Contig_33080_38'
p723
(dp724
F120.0
g3
sF100.0
g4
ssS'dDocent_Contig_72629_47'
p725
(dp726
F130.0
g4
sF110.0
g3
ssS'dDocent_Contig_29861_35'
p727
(dp728
F120.0
g3
sF100.0
g4
ssS'dDocent_Contig_3881_60'
p729
(dp730
F100.0
g4
sF110.0
g3
ssS'dDocent_Contig_18823_28'
p731
(dp732
F130.0
g3
sF110.0
g4
ssS'dDocent_Contig_10827_20'
p733
(dp734
F130.0
g4
sF110.0
g3
ssS'dDocent_Contig_17085_22'
p735
(dp736
F130.0
g3
sF100.0
g4
ssS'dDocent_Contig_57828_85'
p737
(dp738
F130.0
g4
sF110.0
g3
ssS'dDocent_Contig_26288_48'
p739
(dp740
F130.0
g3
sF110.0
g4
ssS'dDocent_Contig_57269_88'
p741
(dp742
F130.0
g4
sF110.0
g3
ssS'dDocent_Contig_55384_13'
p743
(dp744
F130.0
g4
sF110.0
g3
ssS'dDocent_Contig_31622_24'
p745
(dp746
F120.0
g4
sF110.0
g3
ssS'dDocent_Contig_7745_23'
p747
(dp748
F130.0
g4
sF110.0
g3
ssS'dDocent_Contig_20164_41'
p749
(dp750
F130.0
g3
sF110.0
g4
ssS'dDocent_Contig_42264_42'
p751
(dp752
F120.0
g4
sF100.0
g3
ssS'dDocent_Contig_72937_71'
p753
(dp754
F120.0
g3
sF110.0
g4
ssS'dDocent_Contig_15597_66'
p755
(dp756
F120.0
g4
sF100.0
g3
ssS'dDocent_Contig_75197_39'
p757
(dp758
F100.0
g3
sF110.0
g4
ssS'dDocent_Contig_52171_20'
p759
(dp760
F120.0
g4
sF100.0
g3
ssS'dDocent_Contig_14_37'
p761
(dp762
F130.0
g3
sF110.0
g4
ssS'dDocent_Contig_20619_18'
p763
(dp764
F120.0
g4
sF100.0
g3
ssS'dDocent_Contig_68438_50'
p765
(dp766
F120.0
g4
sF100.0
g3
ssS'dDocent_Contig_7588_106'
p767
(dp768
F130.0
g4
sF110.0
g3
ssS'dDocent_Contig_61424_13'
p769
(dp770
F120.0
g3
sF100.0
g4
ssS'dDocent_Contig_82891_50'
p771
(dp772
F130.0
g3
sF110.0
g4
ssS'dDocent_Contig_28533_53'
p773
(dp774
F120.0
g3
sF100.0
g4
ssS'dDocent_Contig_36143_34'
p775
(dp776
F130.0
g3
sF110.0
g4
ssS'dDocent_Contig_49057_18'
p777
(dp778
F100.0
g3
sF110.0
g4
ssS'dDocent_Contig_4956_32'
p779
(dp780
F100.0
g3
sF110.0
g4
ssS'dDocent_Contig_25803_30'
p781
(dp782
F130.0
g3
sF110.0
g4
ssS'dDocent_Contig_68094_13'
p783
(dp784
F130.0
g4
sF110.0
g3
ssS'dDocent_Contig_2338_34'
p785
(dp786
F130.0
g4
sF110.0
g3
ssS'dDocent_Contig_31770_8'
p787
(dp788
F120.0
g4
sF130.0
g3
ssS'dDocent_Contig_5203_88'
p789
(dp790
F120.0
g4
sF100.0
g3
ssS'dDocent_Contig_14995_8'
p791
(dp792
F120.0
g3
sF130.0
g4
ssS'dDocent_Contig_18920_25'
p793
(dp794
F120.0
g4
sF100.0
g3
ssS'dDocent_Contig_16347_8'
p795
(dp796
F130.0
g4
sF100.0
g3
ssS'dDocent_Contig_83554_35'
p797
(dp798
F120.0
g4
sF100.0
g3
ssS'dDocent_Contig_4517_11'
p799
(dp800
F130.0
g3
sF110.0
g4
ssS'dDocent_Contig_671_57'
p801
(dp802
F130.0
g3
sF110.0
g4
ssS'dDocent_Contig_43323_56'
p803
(dp804
F120.0
g4
sF100.0
g3
ssS'dDocent_Contig_14003_8'
p805
(dp806
F120.0
g4
sF110.0
g3
ssS'dDocent_Contig_86211_57'
p807
(dp808
F130.0
g4
sF110.0
g3
ssS'dDocent_Contig_16717_30'
p809
(dp810
F120.0
g3
sF100.0
g4
ssS'dDocent_Contig_10947_38'
p811
(dp812
F120.0
g3
sF100.0
g4
ssS'dDocent_Contig_9429_76'
p813
(dp814
F120.0
g4
sF100.0
g3
ssS'dDocent_Contig_44667_20'
p815
(dp816
F120.0
g3
sF100.0
g4
ssS'dDocent_Contig_9593_18'
p817
(dp818
F120.0
g4
sF100.0
g3
ssS'dDocent_Contig_13769_99'
p819
(dp820
F130.0
g3
sF110.0
g4
ssS'dDocent_Contig_22078_23'
p821
(dp822
F130.0
g3
sF100.0
g4
ssS'dDocent_Contig_16623_53'
p823
(dp824
F120.0
g3
sF100.0
g4
ssS'dDocent_Contig_13692_19'
p825
(dp826
F100.0
g3
sF110.0
g4
ssS'dDocent_Contig_71685_11'
p827
(dp828
F120.0
g4
sF110.0
g3
ssS'dDocent_Contig_18747_9'
p829
(dp830
F120.0
g3
sF100.0
g4
ssS'dDocent_Contig_80743_36'
p831
(dp832
F130.0
g3
sF110.0
g4
ssS'dDocent_Contig_17055_19'
p833
(dp834
F130.0
g3
sF110.0
g4
ssS'dDocent_Contig_804_27'
p835
(dp836
F120.0
g3
sF100.0
g4
ssS'dDocent_Contig_42082_26'
p837
(dp838
F120.0
g4
sF100.0
g3
ssS'dDocent_Contig_1978_13'
p839
(dp840
F120.0
g4
sF100.0
g3
ssS'dDocent_Contig_1834_29'
p841
(dp842
F130.0
g3
sF110.0
g4
ssS'dDocent_Contig_60602_49'
p843
(dp844
F130.0
g4
sF110.0
g3
ssS'dDocent_Contig_10098_50'
p845
(dp846
F130.0
g3
sF110.0
g4
ssS'dDocent_Contig_76944_13'
p847
(dp848
F120.0
g4
sF100.0
g3
ssS'dDocent_Contig_28812_19'
p849
(dp850
F120.0
g3
sF100.0
g4
ssS'dDocent_Contig_20980_17'
p851
(dp852
F130.0
g3
sF100.0
g4
ssS'dDocent_Contig_10271_75'
p853
(dp854
F120.0
g3
sF100.0
g4
ssS'dDocent_Contig_51516_17'
p855
(dp856
F120.0
g4
sF100.0
g3
ssS'dDocent_Contig_7339_7'
p857
(dp858
F120.0
g3
sF100.0
g4
ssS'dDocent_Contig_4407_87'
p859
(dp860
F130.0
g3
sF110.0
g4
ssS'dDocent_Contig_17028_14'
p861
(dp862
F130.0
g3
sF110.0
g4
ssS'dDocent_Contig_1411_9'
p863
(dp864
F120.0
g3
sF100.0
g4
ssS'dDocent_Contig_61567_16'
p865
(dp866
F120.0
g3
sF100.0
g4
ssS'dDocent_Contig_11746_113'
p867
(dp868
F120.0
g3
sF100.0
g4
ssS'dDocent_Contig_6404_25'
p869
(dp870
F130.0
g3
sF110.0
g4
ssS'dDocent_Contig_37864_54'
p871
(dp872
F130.0
g3
sF110.0
g4
ssS'dDocent_Contig_27635_11'
p873
(dp874
F100.0
g3
sF110.0
g4
ssS'dDocent_Contig_9755_9'
p875
(dp876
F130.0
g4
sF110.0
g3
ssS'dDocent_Contig_27658_13'
p877
(dp878
F120.0
g4
sF100.0
g3
ssS'dDocent_Contig_27882_78'
p879
(dp880
F120.0
g4
sF110.0
g3
ssS'dDocent_Contig_73953_14'
p881
(dp882
F100.0
g4
sF110.0
g3
ssS'dDocent_Contig_2228_19'
p883
(dp884
F120.0
g3
sF100.0
g4
ssS'dDocent_Contig_11491_16'
p885
(dp886
F130.0
g4
sF110.0
g3
ssS'dDocent_Contig_72586_20'
p887
(dp888
F130.0
g3
sF110.0
g4
ssS'dDocent_Contig_41918_20'
p889
(dp890
F130.0
g3
sF110.0
g4
ssS'dDocent_Contig_33327_32'
p891
(dp892
F130.0
g3
sF110.0
g4
ssS'dDocent_Contig_36198_39'
p893
(dp894
F130.0
g4
sF110.0
g3
ssS'dDocent_Contig_25340_30'
p895
(dp896
F100.0
g4
sF110.0
g3
ssS'dDocent_Contig_40838_69'
p897
(dp898
F100.0
g4
sF110.0
g3
ssS'dDocent_Contig_366_16'
p899
(dp900
F130.0
g3
sF110.0
g4
ssS'dDocent_Contig_56530_54'
p901
(dp902
F130.0
g4
sF110.0
g3
ssS'dDocent_Contig_87582_17'
p903
(dp904
F120.0
g4
sF100.0
g3
ssS'dDocent_Contig_24698_30'
p905
(dp906
F120.0
g4
sF130.0
g3
ssS'dDocent_Contig_2613_26'
p907
(dp908
F120.0
g4
sF100.0
g3
ssS'dDocent_Contig_15718_17'
p909
(dp910
F120.0
g4
sF110.0
g3
ssS'dDocent_Contig_3531_19'
p911
(dp912
F120.0
g3
sF100.0
g4
ssS'dDocent_Contig_20710_49'
p913
(dp914
F100.0
g4
sF110.0
g3
ssS'dDocent_Contig_44178_52'
p915
(dp916
F130.0
g4
sF100.0
g3
ssS'dDocent_Contig_18950_28'
p917
(dp918
F130.0
g4
sF110.0
g3
ssS'dDocent_Contig_51586_29'
p919
(dp920
F120.0
g3
sF100.0
g4
ssS'dDocent_Contig_92912_7'
p921
(dp922
F120.0
g4
sF100.0
g3
ssS'dDocent_Contig_23747_36'
p923
(dp924
F120.0
g4
sF100.0
g3
ssS'dDocent_Contig_48163_101'
p925
(dp926
F130.0
g3
sF110.0
g4
ssS'dDocent_Contig_27513_53'
p927
(dp928
F120.0
g3
sF130.0
g4
ssS'dDocent_Contig_9525_16'
p929
(dp930
F120.0
g3
sF130.0
g4
ssS'dDocent_Contig_4296_43'
p931
(dp932
F120.0
g3
sF100.0
g4
ssS'dDocent_Contig_15379_7'
p933
(dp934
F130.0
g3
sF110.0
g4
ssS'dDocent_Contig_2774_9'
p935
(dp936
F130.0
g3
sF110.0
g4
ssS'dDocent_Contig_86178_11'
p937
(dp938
F130.0
g4
sF110.0
g3
ssS'dDocent_Contig_56424_26'
p939
(dp940
F120.0
g4
sF100.0
g3
ssS'dDocent_Contig_7400_40'
p941
(dp942
F120.0
g4
sF100.0
g3
ssS'dDocent_Contig_40393_19'
p943
(dp944
F130.0
g3
sF110.0
g4
ssS'dDocent_Contig_54930_23'
p945
(dp946
F130.0
g4
sF100.0
g3
ssS'dDocent_Contig_60236_87'
p947
(dp948
F120.0
g4
sF110.0
g3
ssS'dDocent_Contig_46429_32'
p949
(dp950
F130.0
g4
sF100.0
g3
ssS'dDocent_Contig_609_36'
p951
(dp952
F130.0
g3
sF110.0
g4
ssS'dDocent_Contig_26388_167'
p953
(dp954
F100.0
g4
sF110.0
g3
ssS'dDocent_Contig_59703_72'
p955
(dp956
F120.0
g3
sF100.0
g4
ssS'dDocent_Contig_36400_22'
p957
(dp958
F130.0
g4
sF110.0
g3
ssS'dDocent_Contig_2320_74'
p959
(dp960
F120.0
g3
sF110.0
g4
ssS'dDocent_Contig_12823_31'
p961
(dp962
F120.0
g4
sF100.0
g3
ssS'dDocent_Contig_9180_23'
p963
(dp964
F130.0
g4
sF110.0
g3
ssS'dDocent_Contig_7096_131'
p965
(dp966
F120.0
g4
sF110.0
g3
ssS'dDocent_Contig_55855_41'
p967
(dp968
F120.0
g3
sF100.0
g4
ssS'dDocent_Contig_76258_34'
p969
(dp970
F130.0
g3
sF110.0
g4
ssS'dDocent_Contig_24208_40'
p971
(dp972
F100.0
g3
sF110.0
g4
ssS'dDocent_Contig_46821_63'
p973
(dp974
F100.0
g3
sF110.0
g4
ssS'dDocent_Contig_450_24'
p975
(dp976
F130.0
g3
sF110.0
g4
ssS'dDocent_Contig_73202_11'
p977
(dp978
F120.0
g4
sF100.0
g3
ssS'dDocent_Contig_11567_78'
p979
(dp980
F120.0
g4
sF100.0
g3
ssS'dDocent_Contig_49332_13'
p981
(dp982
F130.0
g4
sF110.0
g3
ssS'dDocent_Contig_90850_58'
p983
(dp984
F130.0
g3
sF110.0
g4
ssS'dDocent_Contig_8843_55'
p985
(dp986
F120.0
g3
sF100.0
g4
ssS'dDocent_Contig_26573_67'
p987
(dp988
F120.0
g4
sF100.0
g3
ssS'dDocent_Contig_7054_13'
p989
(dp990
F100.0
g3
sF110.0
g4
ssS'dDocent_Contig_52018_16'
p991
(dp992
F120.0
g3
sF100.0
g4
ssS'dDocent_Contig_9434_71'
p993
(dp994
F120.0
g4
sF100.0
g3
ssS'dDocent_Contig_6865_17'
p995
(dp996
F120.0
g3
sF100.0
g4
ssS'dDocent_Contig_10833_55'
p997
(dp998
F120.0
g4
sF100.0
g3
ssS'dDocent_Contig_3616_9'
p999
(dp1000
F120.0
g4
sF100.0
g3
ssS'dDocent_Contig_3519_17'
p1001
(dp1002
F120.0
g3
sF100.0
g4
ssS'dDocent_Contig_1933_70'
p1003
(dp1004
F130.0
g3
sF110.0
g4
ssS'dDocent_Contig_5374_12'
p1005
(dp1006
F130.0
g3
sF110.0
g4
ssS'dDocent_Contig_6302_45'
p1007
(dp1008
F130.0
g3
sF110.0
g4
ssS'dDocent_Contig_71608_20'
p1009
(dp1010
F130.0
g4
sF110.0
g3
ssS'dDocent_Contig_13048_30'
p1011
(dp1012
F130.0
g3
sF110.0
g4
ssS'dDocent_Contig_4541_25'
p1013
(dp1014
F120.0
g4
sF110.0
g3
ssS'dDocent_Contig_15034_37'
p1015
(dp1016
F120.0
g3
sF100.0
g4
ssS'dDocent_Contig_23367_17'
p1017
(dp1018
F120.0
g4
sF100.0
g3
ssS'dDocent_Contig_60080_9'
p1019
(dp1020
F120.0
g4
sF100.0
g3
ssS'dDocent_Contig_5097_101'
p1021
(dp1022
F120.0
g4
sF100.0
g3
ssS'dDocent_Contig_18489_23'
p1023
(dp1024
F130.0
g3
sF110.0
g4
ssS'dDocent_Contig_52900_195'
p1025
(dp1026
F120.0
g4
sF110.0
g3
ssS'dDocent_Contig_9946_54'
p1027
(dp1028
F120.0
g3
sF100.0
g4
ssS'dDocent_Contig_42439_39'
p1029
(dp1030
F100.0
g3
sF110.0
g4
ssS'dDocent_Contig_17428_41'
p1031
(dp1032
F120.0
g4
sF100.0
g3
ssS'dDocent_Contig_27653_38'
p1033
(dp1034
F130.0
g4
sF110.0
g3
ssS'dDocent_Contig_9911_38'
p1035
(dp1036
F120.0
g4
sF100.0
g3
ssS'dDocent_Contig_32081_32'
p1037
(dp1038
F120.0
g4
sF130.0
g3
ssS'dDocent_Contig_4903_66'
p1039
(dp1040
F120.0
g4
sF100.0
g3
ssS'dDocent_Contig_26033_63'
p1041
(dp1042
F130.0
g3
sF110.0
g4
ssS'dDocent_Contig_54599_29'
p1043
(dp1044
F120.0
g4
sF130.0
g3
ssS'dDocent_Contig_21204_79'
p1045
(dp1046
F120.0
g4
sF110.0
g3
ssS'dDocent_Contig_81953_8'
p1047
(dp1048
F130.0
g4
sF110.0
g3
ssS'dDocent_Contig_2627_24'
p1049
(dp1050
F130.0
g4
sF110.0
g3
ssS'dDocent_Contig_224_20'
p1051
(dp1052
F120.0
g4
sF100.0
g3
ssS'dDocent_Contig_38251_63'
p1053
(dp1054
F130.0
g3
sF110.0
g4
ssS'dDocent_Contig_5422_14'
p1055
(dp1056
F120.0
g3
sF110.0
g4
ssS'dDocent_Contig_14128_106'
p1057
(dp1058
F130.0
g3
sF110.0
g4
ssS'dDocent_Contig_8745_15'
p1059
(dp1060
F100.0
g4
sF110.0
g3
ssS'dDocent_Contig_1005_7'
p1061
(dp1062
F130.0
g3
sF110.0
g4
ssS'dDocent_Contig_71398_64'
p1063
(dp1064
F100.0
g3
sF110.0
g4
ssS'dDocent_Contig_16569_21'
p1065
(dp1066
F120.0
g3
sF110.0
g4
ssS'dDocent_Contig_20465_52'
p1067
(dp1068
F130.0
g3
sF110.0
g4
ssS'dDocent_Contig_33611_139'
p1069
(dp1070
F130.0
g4
sF110.0
g3
ssS'dDocent_Contig_8324_32'
p1071
(dp1072
F100.0
g3
sF110.0
g4
ssS'dDocent_Contig_2329_47'
p1073
(dp1074
F130.0
g3
sF110.0
g4
ssS'dDocent_Contig_56151_25'
p1075
(dp1076
F130.0
g4
sF110.0
g3
ssS'dDocent_Contig_17066_67'
p1077
(dp1078
F120.0
g3
sF100.0
g4
ssS'dDocent_Contig_16950_47'
p1079
(dp1080
F130.0
g3
sF110.0
g4
ssS'dDocent_Contig_88446_11'
p1081
(dp1082
F120.0
g4
sF110.0
g3
ssS'dDocent_Contig_629_11'
p1083
(dp1084
F120.0
g3
sF100.0
g4
ssS'dDocent_Contig_23410_12'
p1085
(dp1086
F130.0
g3
sF110.0
g4
ssS'dDocent_Contig_69150_12'
p1087
(dp1088
F130.0
g3
sF110.0
g4
ssS'dDocent_Contig_86558_18'
p1089
(dp1090
F120.0
g4
sF110.0
g3
ssS'dDocent_Contig_80531_11'
p1091
(dp1092
F120.0
g4
sF100.0
g3
ssS'dDocent_Contig_10265_75'
p1093
(dp1094
F120.0
g3
sF100.0
g4
ssS'dDocent_Contig_91343_15'
p1095
(dp1096
F130.0
g4
sF110.0
g3
ssS'dDocent_Contig_80304_22'
p1097
(dp1098
F130.0
g4
sF110.0
g3
ssS'dDocent_Contig_25166_10'
p1099
(dp1100
F120.0
g3
sF100.0
g4
ssS'dDocent_Contig_32336_15'
p1101
(dp1102
F120.0
g3
sF100.0
g4
ssS'dDocent_Contig_27375_25'
p1103
(dp1104
F120.0
g4
sF100.0
g3
ssS'dDocent_Contig_34658_13'
p1105
(dp1106
F130.0
g4
sF110.0
g3
ssS'dDocent_Contig_5879_28'
p1107
(dp1108
F120.0
g3
sF100.0
g4
ssS'dDocent_Contig_7897_56'
p1109
(dp1110
F130.0
g4
sF110.0
g3
ssS'dDocent_Contig_32669_210'
p1111
(dp1112
F120.0
g3
sF100.0
g4
ssS'dDocent_Contig_18803_13'
p1113
(dp1114
F130.0
g4
sF110.0
g3
ssS'dDocent_Contig_4211_9'
p1115
(dp1116
F120.0
g4
sF130.0
g3
ssS'dDocent_Contig_53090_11'
p1117
(dp1118
F120.0
g3
sF100.0
g4
ssS'dDocent_Contig_43692_14'
p1119
(dp1120
F120.0
g3
sF100.0
g4
ssS'dDocent_Contig_41716_54'
p1121
(dp1122
F130.0
g3
sF110.0
g4
ssS'dDocent_Contig_53194_62'
p1123
(dp1124
F120.0
g4
sF100.0
g3
ssS'dDocent_Contig_26912_42'
p1125
(dp1126
F100.0
g3
sF110.0
g4
ssS'dDocent_Contig_56216_68'
p1127
(dp1128
F120.0
g4
sF100.0
g3
ssS'dDocent_Contig_28010_99'
p1129
(dp1130
F120.0
g4
sF100.0
g3
ssS'dDocent_Contig_60693_14'
p1131
(dp1132
F120.0
g4
sF100.0
g3
ssS'dDocent_Contig_17388_26'
p1133
(dp1134
F120.0
g3
sF130.0
g4
ssS'dDocent_Contig_65698_29'
p1135
(dp1136
F100.0
g4
sF110.0
g3
ssS'dDocent_Contig_41818_25'
p1137
(dp1138
F120.0
g3
sF130.0
g4
ssS'dDocent_Contig_21600_61'
p1139
(dp1140
F130.0
g4
sF100.0
g3
ssS'dDocent_Contig_63752_18'
p1141
(dp1142
F100.0
g4
sF110.0
g3
ssS'dDocent_Contig_11805_9'
p1143
(dp1144
F130.0
g3
sF110.0
g4
ssS'dDocent_Contig_16830_14'
p1145
(dp1146
F130.0
g4
sF110.0
g3
ssS'dDocent_Contig_3072_42'
p1147
(dp1148
F120.0
g4
sF100.0
g3
ssS'dDocent_Contig_11333_60'
p1149
(dp1150
F120.0
g4
sF100.0
g3
ssS'dDocent_Contig_47608_8'
p1151
(dp1152
F130.0
g4
sF110.0
g3
ssS'dDocent_Contig_19994_27'
p1153
(dp1154
F120.0
g3
sF100.0
g4
ssS'dDocent_Contig_8892_13'
p1155
(dp1156
F120.0
g3
sF100.0
g4
ssS'dDocent_Contig_44374_16'
p1157
(dp1158
F120.0
g4
sF110.0
g3
ssS'dDocent_Contig_26463_12'
p1159
(dp1160
F130.0
g3
sF110.0
g4
ssS'dDocent_Contig_12601_49'
p1161
(dp1162
F130.0
g4
sF110.0
g3
ssS'dDocent_Contig_7229_12'
p1163
(dp1164
F120.0
g4
sF100.0
g3
ssS'dDocent_Contig_11125_30'
p1165
(dp1166
F100.0
g4
sF110.0
g3
ssS'dDocent_Contig_17604_28'
p1167
(dp1168
F130.0
g4
sF110.0
g3
ssS'dDocent_Contig_12814_109'
p1169
(dp1170
F120.0
g3
sF110.0
g4
ssS'dDocent_Contig_54280_21'
p1171
(dp1172
F130.0
g4
sF110.0
g3
ssS'dDocent_Contig_29856_14'
p1173
(dp1174
F130.0
g4
sF110.0
g3
ssS'dDocent_Contig_12558_43'
p1175
(dp1176
F130.0
g3
sF110.0
g4
ssS'dDocent_Contig_85616_77'
p1177
(dp1178
F130.0
g3
sF110.0
g4
ssS'dDocent_Contig_20009_68'
p1179
(dp1180
F120.0
g3
sF100.0
g4
ssS'dDocent_Contig_44034_97'
p1181
(dp1182
F130.0
g4
sF110.0
g3
ssS'dDocent_Contig_8439_52'
p1183
(dp1184
F130.0
g3
sF110.0
g4
ssS'dDocent_Contig_52696_198'
p1185
(dp1186
F130.0
g4
sF110.0
g3
ssS'dDocent_Contig_5612_85'
p1187
(dp1188
F120.0
g3
sF110.0
g4
ssS'dDocent_Contig_6394_20'
p1189
(dp1190
F130.0
g3
sF110.0
g4
ssS'dDocent_Contig_16943_32'
p1191
(dp1192
F120.0
g4
sF130.0
g3
ssS'dDocent_Contig_24250_24'
p1193
(dp1194
F100.0
g4
sF110.0
g3
ssS'dDocent_Contig_25819_42'
p1195
(dp1196
F130.0
g3
sF110.0
g4
ssS'dDocent_Contig_27953_22'
p1197
(dp1198
F130.0
g3
sF110.0
g4
ssS'dDocent_Contig_11315_17'
p1199
(dp1200
F130.0
g4
sF100.0
g3
ssS'dDocent_Contig_51704_21'
p1201
(dp1202
F130.0
g4
sF110.0
g3
ssS'dDocent_Contig_31238_62'
p1203
(dp1204
F130.0
g3
sF110.0
g4
ssS'dDocent_Contig_78171_19'
p1205
(dp1206
F130.0
g3
sF110.0
g4
ssS'dDocent_Contig_36550_34'
p1207
(dp1208
F130.0
g3
sF110.0
g4
ssS'dDocent_Contig_8672_40'
p1209
(dp1210
F120.0
g4
sF100.0
g3
ssS'dDocent_Contig_33382_168'
p1211
(dp1212
F120.0
g4
sF100.0
g3
ssS'dDocent_Contig_85241_9'
p1213
(dp1214
F130.0
g3
sF110.0
g4
ssS'dDocent_Contig_32029_59'
p1215
(dp1216
F120.0
g3
sF100.0
g4
ssS'dDocent_Contig_17529_42'
p1217
(dp1218
F130.0
g3
sF100.0
g4
ssS'dDocent_Contig_51929_40'
p1219
(dp1220
F130.0
g3
sF110.0
g4
ssS'dDocent_Contig_24844_48'
p1221
(dp1222
F120.0
g4
sF100.0
g3
ssS'dDocent_Contig_73784_64'
p1223
(dp1224
F130.0
g3
sF110.0
g4
ssS'dDocent_Contig_9407_23'
p1225
(dp1226
F130.0
g3
sF110.0
g4
ssS'dDocent_Contig_88499_117'
p1227
(dp1228
F120.0
g3
sF100.0
g4
ssS'dDocent_Contig_8594_42'
p1229
(dp1230
F120.0
g4
sF100.0
g3
ssS'dDocent_Contig_9236_10'
p1231
(dp1232
F130.0
g4
sF110.0
g3
ssS'dDocent_Contig_71363_54'
p1233
(dp1234
F100.0
g3
sF110.0
g4
ssS'dDocent_Contig_41439_95'
p1235
(dp1236
F120.0
g4
sF130.0
g3
ssS'dDocent_Contig_3582_21'
p1237
(dp1238
F120.0
g4
sF100.0
g3
ssS'dDocent_Contig_31745_21'
p1239
(dp1240
F130.0
g4
sF110.0
g3
ssS'dDocent_Contig_18179_9'
p1241
(dp1242
F120.0
g3
sF110.0
g4
ssS'dDocent_Contig_47571_29'
p1243
(dp1244
F120.0
g4
sF100.0
g3
ssS'dDocent_Contig_22982_50'
p1245
(dp1246
F130.0
g3
sF110.0
g4
ssS'dDocent_Contig_3973_36'
p1247
(dp1248
F120.0
g4
sF130.0
g3
ssS'dDocent_Contig_11736_27'
p1249
(dp1250
F130.0
g3
sF110.0
g4
ssS'dDocent_Contig_14498_56'
p1251
(dp1252
F100.0
g3
sF110.0
g4
ssS'dDocent_Contig_61082_55'
p1253
(dp1254
F120.0
g4
sF110.0
g3
ssS'dDocent_Contig_58553_101'
p1255
(dp1256
F130.0
g3
sF100.0
g4
ssS'dDocent_Contig_10472_48'
p1257
(dp1258
F120.0
g3
sF100.0
g4
ssS'dDocent_Contig_60978_26'
p1259
(dp1260
F120.0
g4
sF100.0
g3
ssS'dDocent_Contig_92868_41'
p1261
(dp1262
F130.0
g3
sF100.0
g4
ssS'dDocent_Contig_19703_30'
p1263
(dp1264
F120.0
g3
sF110.0
g4
ssS'dDocent_Contig_50229_63'
p1265
(dp1266
F130.0
g4
sF100.0
g3
ssS'dDocent_Contig_25869_46'
p1267
(dp1268
F120.0
g3
sF100.0
g4
ssS'dDocent_Contig_7738_9'
p1269
(dp1270
F130.0
g3
sF110.0
g4
ssS'dDocent_Contig_44802_23'
p1271
(dp1272
F130.0
g3
sF110.0
g4
ssS'dDocent_Contig_8207_33'
p1273
(dp1274
F120.0
g3
sF100.0
g4
ssS'dDocent_Contig_38447_25'
p1275
(dp1276
F120.0
g4
sF100.0
g3
ssS'dDocent_Contig_28175_51'
p1277
(dp1278
F120.0
g3
sF100.0
g4
ssS'dDocent_Contig_13742_31'
p1279
(dp1280
F130.0
g4
sF100.0
g3
ssS'dDocent_Contig_49878_26'
p1281
(dp1282
F120.0
g3
sF100.0
g4
ssS'dDocent_Contig_34306_10'
p1283
(dp1284
F120.0
g4
sF110.0
g3
ssS'dDocent_Contig_68142_40'
p1285
(dp1286
F120.0
g3
sF100.0
g4
ssS'dDocent_Contig_33259_25'
p1287
(dp1288
F120.0
g3
sF100.0
g4
ssS'dDocent_Contig_33823_28'
p1289
(dp1290
F120.0
g4
sF110.0
g3
ssS'dDocent_Contig_3094_7'
p1291
(dp1292
F130.0
g3
sF110.0
g4
ssS'dDocent_Contig_13140_50'
p1293
(dp1294
F130.0
g4
sF110.0
g3
ssS'dDocent_Contig_13360_33'
p1295
(dp1296
F100.0
g4
sF110.0
g3
ssS'dDocent_Contig_34228_46'
p1297
(dp1298
F130.0
g3
sF110.0
g4
ssS'dDocent_Contig_35118_25'
p1299
(dp1300
F120.0
g3
sF100.0
g4
ssS'dDocent_Contig_6574_42'
p1301
(dp1302
F100.0
g4
sF110.0
g3
ssS'dDocent_Contig_32471_18'
p1303
(dp1304
F130.0
g4
sF100.0
g3
ssS'dDocent_Contig_17896_7'
p1305
(dp1306
F120.0
g3
sF100.0
g4
ssS'dDocent_Contig_28649_19'
p1307
(dp1308
F130.0
g3
sF110.0
g4
ssS'dDocent_Contig_1576_38'
p1309
(dp1310
F130.0
g3
sF110.0
g4
ssS'dDocent_Contig_46086_24'
p1311
(dp1312
F120.0
g4
sF100.0
g3
ssS'dDocent_Contig_1598_33'
p1313
(dp1314
F120.0
g3
sF100.0
g4
ssS'dDocent_Contig_928_89'
p1315
(dp1316
F130.0
g3
sF110.0
g4
ssS'dDocent_Contig_14320_58'
p1317
(dp1318
F120.0
g4
sF100.0
g3
ssS'dDocent_Contig_7885_73'
p1319
(dp1320
F120.0
g3
sF130.0
g4
ssS'dDocent_Contig_24872_60'
p1321
(dp1322
F120.0
g4
sF100.0
g3
ssS'dDocent_Contig_37589_29'
p1323
(dp1324
F120.0
g4
sF100.0
g3
ssS'dDocent_Contig_39089_137'
p1325
(dp1326
F130.0
g4
sF110.0
g3
ssS'dDocent_Contig_13673_43'
p1327
(dp1328
F130.0
g3
sF110.0
g4
ssS'dDocent_Contig_8885_49'
p1329
(dp1330
F120.0
g4
sF110.0
g3
ssS'dDocent_Contig_43592_22'
p1331
(dp1332
F130.0
g4
sF110.0
g3
ssS'dDocent_Contig_12209_26'
p1333
(dp1334
F130.0
g4
sF110.0
g3
ssS'dDocent_Contig_16784_16'
p1335
(dp1336
F130.0
g4
sF110.0
g3
ssS'dDocent_Contig_88181_17'
p1337
(dp1338
F120.0
g3
sF100.0
g4
ssS'dDocent_Contig_7850_18'
p1339
(dp1340
F130.0
g3
sF110.0
g4
ssS'dDocent_Contig_23680_40'
p1341
(dp1342
F100.0
g4
sF110.0
g3
ssS'dDocent_Contig_32001_52'
p1343
(dp1344
F130.0
g4
sF110.0
g3
ssS'dDocent_Contig_9213_26'
p1345
(dp1346
F120.0
g3
sF100.0
g4
ssS'dDocent_Contig_26196_14'
p1347
(dp1348
F120.0
g4
sF100.0
g3
ssS'dDocent_Contig_67107_174'
p1349
(dp1350
F130.0
g3
sF110.0
g4
ssS'dDocent_Contig_11009_22'
p1351
(dp1352
F100.0
g3
sF110.0
g4
ssS'dDocent_Contig_61482_12'
p1353
(dp1354
F120.0
g4
sF100.0
g3
ssS'dDocent_Contig_22899_41'
p1355
(dp1356
F130.0
g3
sF110.0
g4
ssS'dDocent_Contig_16429_11'
p1357
(dp1358
F120.0
g3
sF100.0
g4
ssS'dDocent_Contig_66830_35'
p1359
(dp1360
F130.0
g4
sF100.0
g3
ssS'dDocent_Contig_9272_34'
p1361
(dp1362
F100.0
g4
sF110.0
g3
ssS'dDocent_Contig_41767_24'
p1363
(dp1364
F120.0
g3
sF100.0
g4
ssS'dDocent_Contig_12619_46'
p1365
(dp1366
F120.0
g3
sF100.0
g4
ssS'dDocent_Contig_28453_28'
p1367
(dp1368
F120.0
g3
sF100.0
g4
ssS'dDocent_Contig_44975_12'
p1369
(dp1370
F130.0
g3
sF110.0
g4
ssS'dDocent_Contig_9156_55'
p1371
(dp1372
F130.0
g3
sF110.0
g4
ssS'dDocent_Contig_288_14'
p1373
(dp1374
F130.0
g4
sF110.0
g3
ssS'dDocent_Contig_44046_26'
p1375
(dp1376
F120.0
g4
sF100.0
g3
ssS'dDocent_Contig_45092_37'
p1377
(dp1378
F130.0
g3
sF110.0
g4
ssS'dDocent_Contig_22408_101'
p1379
(dp1380
F120.0
g3
sF100.0
g4
ssS'dDocent_Contig_18194_41'
p1381
(dp1382
F120.0
g3
sF100.0
g4
ssS'dDocent_Contig_5073_36'
p1383
(dp1384
F100.0
g4
sF110.0
g3
ssS'dDocent_Contig_35061_53'
p1385
(dp1386
F120.0
g3
sF110.0
g4
ssS'dDocent_Contig_14360_22'
p1387
(dp1388
F100.0
g3
sF110.0
g4
ssS'dDocent_Contig_62660_98'
p1389
(dp1390
F120.0
g4
sF130.0
g3
ssS'dDocent_Contig_39053_13'
p1391
(dp1392
F130.0
g3
sF110.0
g4
ssS'dDocent_Contig_4082_29'
p1393
(dp1394
F120.0
g3
sF110.0
g4
ssS'dDocent_Contig_37353_142'
p1395
(dp1396
F130.0
g3
sF110.0
g4
ssS'dDocent_Contig_27950_18'
p1397
(dp1398
F120.0
g4
sF130.0
g3
ssS'dDocent_Contig_20769_21'
p1399
(dp1400
F120.0
g4
sF100.0
g3
ssS'dDocent_Contig_27970_63'
p1401
(dp1402
F130.0
g3
sF110.0
g4
ssS'dDocent_Contig_5528_25'
p1403
(dp1404
F120.0
g3
sF100.0
g4
ssS'dDocent_Contig_42724_8'
p1405
(dp1406
F120.0
g3
sF100.0
g4
ssS'dDocent_Contig_6428_10'
p1407
(dp1408
F120.0
g3
sF130.0
g4
ssS'dDocent_Contig_76320_67'
p1409
(dp1410
F130.0
g3
sF110.0
g4
ssS'dDocent_Contig_46814_23'
p1411
(dp1412
F130.0
g3
sF100.0
g4
ssS'dDocent_Contig_49164_22'
p1413
(dp1414
F120.0
g4
sF100.0
g3
ssS'dDocent_Contig_21708_38'
p1415
(dp1416
F130.0
g3
sF110.0
g4
ssS'dDocent_Contig_13616_70'
p1417
(dp1418
F120.0
g3
sF100.0
g4
ssS'dDocent_Contig_66422_59'
p1419
(dp1420
F120.0
g4
sF130.0
g3
ssS'dDocent_Contig_11595_35'
p1421
(dp1422
F100.0
g3
sF110.0
g4
ssS'dDocent_Contig_79370_10'
p1423
(dp1424
F130.0
g4
sF110.0
g3
ssS'dDocent_Contig_19681_17'
p1425
(dp1426
F120.0
g3
sF130.0
g4
ssS'dDocent_Contig_49628_27'
p1427
(dp1428
F130.0
g3
sF110.0
g4
ssS'dDocent_Contig_6467_120'
p1429
(dp1430
F100.0
g3
sF110.0
g4
ssS'dDocent_Contig_38174_110'
p1431
(dp1432
F120.0
g4
sF100.0
g3
ssS'dDocent_Contig_8940_7'
p1433
(dp1434
F130.0
g4
sF110.0
g3
ssS'dDocent_Contig_26363_17'
p1435
(dp1436
F130.0
g4
sF110.0
g3
ssS'dDocent_Contig_30687_17'
p1437
(dp1438
F130.0
g4
sF100.0
g3
ssS'dDocent_Contig_1704_9'
p1439
(dp1440
F130.0
g4
sF110.0
g3
ssS'dDocent_Contig_15897_27'
p1441
(dp1442
F120.0
g4
sF100.0
g3
ssS'dDocent_Contig_434_89'
p1443
(dp1444
F120.0
g3
sF100.0
g4
ssS'dDocent_Contig_87266_25'
p1445
(dp1446
F100.0
g3
sF110.0
g4
ssS'dDocent_Contig_19534_179'
p1447
(dp1448
F120.0
g3
sF100.0
g4
ssS'dDocent_Contig_70145_55'
p1449
(dp1450
F130.0
g3
sF110.0
g4
ssS'dDocent_Contig_28123_9'
p1451
(dp1452
F130.0
g3
sF110.0
g4
ssS'dDocent_Contig_7810_7'
p1453
(dp1454
F120.0
g4
sF100.0
g3
ssS'dDocent_Contig_36666_32'
p1455
(dp1456
F130.0
g4
sF110.0
g3
ssS'dDocent_Contig_17492_38'
p1457
(dp1458
F130.0
g4
sF110.0
g3
ssS'dDocent_Contig_7282_75'
p1459
(dp1460
F130.0
g4
sF100.0
g3
ssS'dDocent_Contig_61182_14'
p1461
(dp1462
F130.0
g4
sF110.0
g3
ssS'dDocent_Contig_17380_40'
p1463
(dp1464
F120.0
g4
sF100.0
g3
ssS'dDocent_Contig_6993_94'
p1465
(dp1466
F130.0
g4
sF110.0
g3
ssS'dDocent_Contig_39511_88'
p1467
(dp1468
F130.0
g4
sF110.0
g3
ssS'dDocent_Contig_7682_8'
p1469
(dp1470
F120.0
g4
sF100.0
g3
ssS'dDocent_Contig_7557_32'
p1471
(dp1472
F120.0
g3
sF110.0
g4
ssS'dDocent_Contig_50282_39'
p1473
(dp1474
F120.0
g4
sF100.0
g3
ssS'dDocent_Contig_24423_10'
p1475
(dp1476
F130.0
g3
sF110.0
g4
ssS'dDocent_Contig_35069_89'
p1477
(dp1478
F130.0
g3
sF110.0
g4
ssS'dDocent_Contig_19561_82'
p1479
(dp1480
F120.0
g4
sF100.0
g3
ssS'dDocent_Contig_12302_35'
p1481
(dp1482
F130.0
g4
sF100.0
g3
ssS'dDocent_Contig_3701_7'
p1483
(dp1484
F120.0
g3
sF100.0
g4
ssS'dDocent_Contig_28281_124'
p1485
(dp1486
F120.0
g3
sF100.0
g4
ssS'dDocent_Contig_12246_23'
p1487
(dp1488
F120.0
g4
sF100.0
g3
ssS'dDocent_Contig_26973_129'
p1489
(dp1490
F120.0
g4
sF110.0
g3
ssS'dDocent_Contig_19441_31'
p1491
(dp1492
F120.0
g4
sF130.0
g3
ssS'dDocent_Contig_25639_59'
p1493
(dp1494
F130.0
g4
sF110.0
g3
ssS'dDocent_Contig_4142_16'
p1495
(dp1496
F130.0
g3
sF110.0
g4
ssS'dDocent_Contig_38371_64'
p1497
(dp1498
F120.0
g4
sF100.0
g3
ssS'dDocent_Contig_28993_10'
p1499
(dp1500
F120.0
g4
sF100.0
g3
ssS'dDocent_Contig_55380_24'
p1501
(dp1502
F130.0
g3
sF110.0
g4
ssS'dDocent_Contig_5233_45'
p1503
(dp1504
F120.0
g3
sF100.0
g4
ssS'dDocent_Contig_36458_48'
p1505
(dp1506
F120.0
g3
sF100.0
g4
ssS'dDocent_Contig_25239_36'
p1507
(dp1508
F120.0
g3
sF100.0
g4
ssS'dDocent_Contig_9191_65'
p1509
(dp1510
F120.0
g4
sF100.0
g3
ssS'dDocent_Contig_11148_13'
p1511
(dp1512
F120.0
g3
sF100.0
g4
ssS'dDocent_Contig_16410_10'
p1513
(dp1514
F130.0
g3
sF110.0
g4
ssS'dDocent_Contig_49559_28'
p1515
(dp1516
F130.0
g3
sF110.0
g4
ssS'dDocent_Contig_5908_12'
p1517
(dp1518
F120.0
g4
sF100.0
g3
ssS'dDocent_Contig_10268_57'
p1519
(dp1520
F120.0
g3
sF100.0
g4
ssS'dDocent_Contig_15247_19'
p1521
(dp1522
F130.0
g4
sF110.0
g3
ssS'dDocent_Contig_40131_11'
p1523
(dp1524
F120.0
g3
sF100.0
g4
ssS'dDocent_Contig_28184_49'
p1525
(dp1526
F130.0
g4
sF110.0
g3
ssS'dDocent_Contig_45285_18'
p1527
(dp1528
F130.0
g4
sF110.0
g3
ssS'dDocent_Contig_1498_14'
p1529
(dp1530
F130.0
g4
sF100.0
g3
ssS'dDocent_Contig_28289_70'
p1531
(dp1532
F120.0
g3
sF100.0
g4
ssS'dDocent_Contig_25181_116'
p1533
(dp1534
F120.0
g3
sF110.0
g4
ssS'dDocent_Contig_13254_24'
p1535
(dp1536
F120.0
g3
sF110.0
g4
ssS'dDocent_Contig_63500_55'
p1537
(dp1538
F130.0
g3
sF110.0
g4
ssS'dDocent_Contig_9776_17'
p1539
(dp1540
F120.0
g3
sF110.0
g4
ssS'dDocent_Contig_9185_68'
p1541
(dp1542
F120.0
g3
sF100.0
g4
ssS'dDocent_Contig_21055_33'
p1543
(dp1544
F120.0
g4
sF100.0
g3
ssS'dDocent_Contig_53041_37'
p1545
(dp1546
F120.0
g3
sF100.0
g4
ssS'dDocent_Contig_39670_11'
p1547
(dp1548
F120.0
g3
sF100.0
g4
ssS'dDocent_Contig_23862_187'
p1549
(dp1550
F130.0
g4
sF110.0
g3
ssS'dDocent_Contig_61861_137'
p1551
(dp1552
F130.0
g4
sF110.0
g3
ssS'dDocent_Contig_90144_53'
p1553
(dp1554
F120.0
g3
sF100.0
g4
ssS'dDocent_Contig_20526_31'
p1555
(dp1556
F130.0
g3
sF110.0
g4
ssS'dDocent_Contig_20332_69'
p1557
(dp1558
F120.0
g3
sF100.0
g4
ssS'dDocent_Contig_32763_14'
p1559
(dp1560
F100.0
g4
sF110.0
g3
ssS'dDocent_Contig_11121_65'
p1561
(dp1562
F120.0
g4
sF100.0
g3
ssS'dDocent_Contig_83745_48'
p1563
(dp1564
F130.0
g4
sF110.0
g3
ssS'dDocent_Contig_11142_27'
p1565
(dp1566
F120.0
g4
sF100.0
g3
ssS'dDocent_Contig_52097_16'
p1567
(dp1568
F120.0
g3
sF110.0
g4
ssS'dDocent_Contig_3497_47'
p1569
(dp1570
F130.0
g4
sF110.0
g3
ssS'dDocent_Contig_4864_103'
p1571
(dp1572
F130.0
g4
sF110.0
g3
ssS'dDocent_Contig_7136_37'
p1573
(dp1574
F130.0
g4
sF110.0
g3
ssS'dDocent_Contig_26438_8'
p1575
(dp1576
F130.0
g3
sF100.0
g4
ssS'dDocent_Contig_11838_145'
p1577
(dp1578
F120.0
g3
sF100.0
g4
ssS'dDocent_Contig_80392_80'
p1579
(dp1580
F120.0
g3
sF100.0
g4
ssS'dDocent_Contig_5217_32'
p1581
(dp1582
F120.0
g3
sF100.0
g4
ssS'dDocent_Contig_92670_40'
p1583
(dp1584
F120.0
g4
sF100.0
g3
ssS'dDocent_Contig_42427_8'
p1585
(dp1586
F130.0
g3
sF110.0
g4
ssS'dDocent_Contig_46915_30'
p1587
(dp1588
F120.0
g4
sF100.0
g3
ssS'dDocent_Contig_4481_9'
p1589
(dp1590
F120.0
g4
sF110.0
g3
ssS'dDocent_Contig_21686_28'
p1591
(dp1592
F130.0
g3
sF110.0
g4
ssS'dDocent_Contig_19350_45'
p1593
(dp1594
F120.0
g3
sF110.0
g4
ssS'dDocent_Contig_16063_13'
p1595
(dp1596
F120.0
g4
sF110.0
g3
ssS'dDocent_Contig_39837_7'
p1597
(dp1598
F100.0
g4
sF110.0
g3
ssS'dDocent_Contig_39808_32'
p1599
(dp1600
F120.0
g4
sF110.0
g3
ssS'dDocent_Contig_13667_80'
p1601
(dp1602
F130.0
g3
sF110.0
g4
ssS'dDocent_Contig_21594_23'
p1603
(dp1604
F120.0
g3
sF100.0
g4
ssS'dDocent_Contig_52342_89'
p1605
(dp1606
F120.0
g3
sF130.0
g4
ssS'dDocent_Contig_23325_31'
p1607
(dp1608
F120.0
g4
sF100.0
g3
ssS'dDocent_Contig_18646_26'
p1609
(dp1610
F130.0
g4
sF110.0
g3
ssS'dDocent_Contig_2206_29'
p1611
(dp1612
F130.0
g4
sF110.0
g3
ssS'dDocent_Contig_52708_23'
p1613
(dp1614
F130.0
g4
sF110.0
g3
ssS'dDocent_Contig_1309_18'
p1615
(dp1616
F120.0
g3
sF100.0
g4
ssS'dDocent_Contig_956_8'
p1617
(dp1618
F130.0
g4
sF110.0
g3
ssS'dDocent_Contig_32145_24'
p1619
(dp1620
F120.0
g3
sF100.0
g4
ssS'dDocent_Contig_9451_80'
p1621
(dp1622
F120.0
g4
sF110.0
g3
ssS'dDocent_Contig_531_13'
p1623
(dp1624
F120.0
g3
sF100.0
g4
ssS'dDocent_Contig_79113_7'
p1625
(dp1626
F130.0
g4
sF110.0
g3
ssS'dDocent_Contig_12800_17'
p1627
(dp1628
F130.0
g3
sF110.0
g4
ssS'dDocent_Contig_30636_48'
p1629
(dp1630
F130.0
g3
sF110.0
g4
ssS'dDocent_Contig_11544_14'
p1631
(dp1632
F120.0
g4
sF100.0
g3
ssS'dDocent_Contig_50149_10'
p1633
(dp1634
F130.0
g3
sF110.0
g4
ssS'dDocent_Contig_121_58'
p1635
(dp1636
F130.0
g4
sF110.0
g3
ssS'dDocent_Contig_8379_132'
p1637
(dp1638
F130.0
g3
sF110.0
g4
ssS'dDocent_Contig_50271_25'
p1639
(dp1640
F130.0
g4
sF110.0
g3
ssS'dDocent_Contig_25991_27'
p1641
(dp1642
F120.0
g4
sF100.0
g3
ssS'dDocent_Contig_11644_115'
p1643
(dp1644
F120.0
g4
sF100.0
g3
ssS'dDocent_Contig_23847_18'
p1645
(dp1646
F120.0
g3
sF110.0
g4
ssS'dDocent_Contig_6062_13'
p1647
(dp1648
F130.0
g4
sF110.0
g3
ssS'dDocent_Contig_8921_23'
p1649
(dp1650
F130.0
g4
sF110.0
g3
ssS'dDocent_Contig_6581_9'
p1651
(dp1652
F120.0
g3
sF110.0
g4
ssS'dDocent_Contig_4805_12'
p1653
(dp1654
F120.0
g3
sF100.0
g4
ssS'dDocent_Contig_16382_32'
p1655
(dp1656
F120.0
g3
sF130.0
g4
ssS'dDocent_Contig_1101_25'
p1657
(dp1658
F130.0
g4
sF110.0
g3
ssS'dDocent_Contig_11085_21'
p1659
(dp1660
F130.0
g3
sF110.0
g4
ssS'dDocent_Contig_22428_18'
p1661
(dp1662
F120.0
g4
sF100.0
g3
ssS'dDocent_Contig_77186_14'
p1663
(dp1664
F130.0
g3
sF110.0
g4
ssS'dDocent_Contig_31331_36'
p1665
(dp1666
F120.0
g3
sF110.0
g4
ssS'dDocent_Contig_44183_14'
p1667
(dp1668
F130.0
g3
sF110.0
g4
ssS'dDocent_Contig_3602_38'
p1669
(dp1670
F130.0
g3
sF110.0
g4
ssS'dDocent_Contig_2601_29'
p1671
(dp1672
F120.0
g3
sF100.0
g4
ssS'dDocent_Contig_22063_37'
p1673
(dp1674
F130.0
g3
sF100.0
g4
ssS'dDocent_Contig_5469_8'
p1675
(dp1676
F120.0
g3
sF100.0
g4
ssS'dDocent_Contig_14891_59'
p1677
(dp1678
F120.0
g3
sF130.0
g4
ssS'dDocent_Contig_50999_26'
p1679
(dp1680
F120.0
g3
sF100.0
g4
ssS'dDocent_Contig_6054_49'
p1681
(dp1682
F120.0
g4
sF100.0
g3
ssS'dDocent_Contig_14734_80'
p1683
(dp1684
F120.0
g4
sF100.0
g3
ssS'dDocent_Contig_26380_14'
p1685
(dp1686
F100.0
g4
sF110.0
g3
ssS'dDocent_Contig_35010_67'
p1687
(dp1688
F120.0
g3
sF110.0
g4
ssS'dDocent_Contig_22250_19'
p1689
(dp1690
F130.0
g4
sF110.0
g3
ssS'dDocent_Contig_59025_18'
p1691
(dp1692
F130.0
g4
sF110.0
g3
ssS'dDocent_Contig_38380_18'
p1693
(dp1694
F120.0
g3
sF100.0
g4
ssS'dDocent_Contig_3509_34'
p1695
(dp1696
F120.0
g4
sF130.0
g3
ssS'dDocent_Contig_84976_8'
p1697
(dp1698
F120.0
g3
sF100.0
g4
ssS'dDocent_Contig_5692_60'
p1699
(dp1700
F120.0
g3
sF100.0
g4
ssS'dDocent_Contig_9464_16'
p1701
(dp1702
F120.0
g4
sF100.0
g3
ssS'dDocent_Contig_41568_26'
p1703
(dp1704
F130.0
g3
sF110.0
g4
ssS'dDocent_Contig_46303_210'
p1705
(dp1706
F120.0
g3
sF100.0
g4
ssS'dDocent_Contig_28995_26'
p1707
(dp1708
F130.0
g3
sF110.0
g4
ssS'dDocent_Contig_45304_23'
p1709
(dp1710
F120.0
g4
sF110.0
g3
ssS'dDocent_Contig_25234_28'
p1711
(dp1712
F120.0
g3
sF100.0
g4
ssS'dDocent_Contig_23706_73'
p1713
(dp1714
F120.0
g4
sF100.0
g3
ssS'dDocent_Contig_80088_13'
p1715
(dp1716
F130.0
g3
sF110.0
g4
ssS'dDocent_Contig_7323_62'
p1717
(dp1718
F130.0
g3
sF110.0
g4
ssS'dDocent_Contig_7537_7'
p1719
(dp1720
F100.0
g3
sF110.0
g4
ssS'dDocent_Contig_10678_20'
p1721
(dp1722
F120.0
g4
sF100.0
g3
ssS'dDocent_Contig_2977_128'
p1723
(dp1724
F100.0
g3
sF110.0
g4
ssS'dDocent_Contig_48535_22'
p1725
(dp1726
F130.0
g3
sF110.0
g4
ssS'dDocent_Contig_12331_8'
p1727
(dp1728
F120.0
g3
sF100.0
g4
ssS'dDocent_Contig_18862_12'
p1729
(dp1730
F120.0
g4
sF110.0
g3
ssS'dDocent_Contig_19449_24'
p1731
(dp1732
F130.0
g4
sF110.0
g3
ssS'dDocent_Contig_42705_35'
p1733
(dp1734
F130.0
g4
sF100.0
g3
ssS'dDocent_Contig_21184_24'
p1735
(dp1736
F120.0
g4
sF130.0
g3
ssS'dDocent_Contig_32820_69'
p1737
(dp1738
F130.0
g3
sF110.0
g4
ssS'dDocent_Contig_17305_19'
p1739
(dp1740
F120.0
g3
sF100.0
g4
ssS'dDocent_Contig_30039_8'
p1741
(dp1742
F130.0
g4
sF110.0
g3
ssS'dDocent_Contig_3069_8'
p1743
(dp1744
F120.0
g3
sF100.0
g4
ssS'dDocent_Contig_31694_102'
p1745
(dp1746
F130.0
g4
sF110.0
g3
ssS'dDocent_Contig_13278_30'
p1747
(dp1748
F130.0
g3
sF110.0
g4
ssS'dDocent_Contig_49538_61'
p1749
(dp1750
F130.0
g3
sF110.0
g4
ssS'dDocent_Contig_37188_41'
p1751
(dp1752
F120.0
g4
sF130.0
g3
ssS'dDocent_Contig_15005_249'
p1753
(dp1754
F120.0
g3
sF100.0
g4
ssS'dDocent_Contig_8951_57'
p1755
(dp1756
F120.0
g3
sF100.0
g4
ssS'dDocent_Contig_17848_21'
p1757
(dp1758
F120.0
g3
sF100.0
g4
ssS'dDocent_Contig_41450_22'
p1759
(dp1760
F130.0
g3
sF110.0
g4
ssS'dDocent_Contig_79457_75'
p1761
(dp1762
F100.0
g4
sF110.0
g3
ssS'dDocent_Contig_87318_8'
p1763
(dp1764
F120.0
g3
sF100.0
g4
ssS'dDocent_Contig_51530_9'
p1765
(dp1766
F120.0
g3
sF100.0
g4
ssS'dDocent_Contig_19801_62'
p1767
(dp1768
F120.0
g4
sF100.0
g3
ssS'dDocent_Contig_5076_52'
p1769
(dp1770
F130.0
g3
sF100.0
g4
ssS'dDocent_Contig_8093_28'
p1771
(dp1772
F130.0
g4
sF110.0
g3
ssS'dDocent_Contig_2739_27'
p1773
(dp1774
F130.0
g4
sF110.0
g3
ssS'dDocent_Contig_6218_7'
p1775
(dp1776
F120.0
g4
sF100.0
g3
ssS'dDocent_Contig_11758_47'
p1777
(dp1778
F100.0
g4
sF110.0
g3
ssS'dDocent_Contig_15660_23'
p1779
(dp1780
F120.0
g4
sF100.0
g3
ssS'dDocent_Contig_10736_38'
p1781
(dp1782
F100.0
g3
sF110.0
g4
ssS'dDocent_Contig_26403_13'
p1783
(dp1784
F130.0
g3
sF110.0
g4
ssS'dDocent_Contig_8522_10'
p1785
(dp1786
F130.0
g3
sF110.0
g4
ssS'dDocent_Contig_14714_46'
p1787
(dp1788
F130.0
g3
sF110.0
g4
ssS'dDocent_Contig_36959_19'
p1789
(dp1790
F130.0
g4
sF110.0
g3
ssS'dDocent_Contig_17423_55'
p1791
(dp1792
F120.0
g4
sF100.0
g3
ssS'dDocent_Contig_14250_10'
p1793
(dp1794
F130.0
g4
sF100.0
g3
ssS'dDocent_Contig_8861_7'
p1795
(dp1796
F130.0
g4
sF110.0
g3
ssS'dDocent_Contig_40178_282'
p1797
(dp1798
F130.0
g3
sF110.0
g4
ssS'dDocent_Contig_23677_14'
p1799
(dp1800
F130.0
g4
sF110.0
g3
ssS'dDocent_Contig_42244_68'
p1801
(dp1802
F130.0
g3
sF110.0
g4
ssS'dDocent_Contig_2414_26'
p1803
(dp1804
F130.0
g3
sF110.0
g4
ssS'dDocent_Contig_57821_215'
p1805
(dp1806
F120.0
g4
sF110.0
g3
ssS'dDocent_Contig_26114_18'
p1807
(dp1808
F120.0
g3
sF100.0
g4
ssS'dDocent_Contig_82769_12'
p1809
(dp1810
F130.0
g4
sF110.0
g3
ssS'dDocent_Contig_4413_46'
p1811
(dp1812
F120.0
g3
sF100.0
g4
ssS'dDocent_Contig_29357_24'
p1813
(dp1814
F130.0
g4
sF110.0
g3
ssS'dDocent_Contig_40567_7'
p1815
(dp1816
F130.0
g4
sF110.0
g3
ssS'dDocent_Contig_14602_98'
p1817
(dp1818
F120.0
g4
sF100.0
g3
ssS'dDocent_Contig_92246_42'
p1819
(dp1820
F130.0
g3
sF110.0
g4
ssS'dDocent_Contig_51387_20'
p1821
(dp1822
F100.0
g4
sF110.0
g3
ssS'dDocent_Contig_65430_57'
p1823
(dp1824
F120.0
g3
sF100.0
g4
ssS'dDocent_Contig_28492_90'
p1825
(dp1826
F130.0
g3
sF110.0
g4
ssS'dDocent_Contig_20673_110'
p1827
(dp1828
F120.0
g4
sF100.0
g3
ssS'dDocent_Contig_56187_21'
p1829
(dp1830
F100.0
g3
sF110.0
g4
ssS'dDocent_Contig_10230_48'
p1831
(dp1832
F120.0
g3
sF100.0
g4
ssS'dDocent_Contig_22606_37'
p1833
(dp1834
F100.0
g3
sF110.0
g4
ssS'dDocent_Contig_22968_39'
p1835
(dp1836
F100.0
g4
sF110.0
g3
ssS'dDocent_Contig_963_56'
p1837
(dp1838
F120.0
g3
sF130.0
g4
ssS'dDocent_Contig_3469_121'
p1839
(dp1840
F120.0
g3
sF100.0
g4
ssS'dDocent_Contig_38819_46'
p1841
(dp1842
F100.0
g3
sF110.0
g4
ssS'dDocent_Contig_7051_80'
p1843
(dp1844
F120.0
g4
sF100.0
g3
ssS'dDocent_Contig_20042_72'
p1845
(dp1846
F120.0
g4
sF100.0
g3
ssS'dDocent_Contig_54848_87'
p1847
(dp1848
F100.0
g3
sF110.0
g4
ssS'dDocent_Contig_37880_65'
p1849
(dp1850
F120.0
g3
sF100.0
g4
ssS'dDocent_Contig_4719_7'
p1851
(dp1852
F120.0
g4
sF100.0
g3
ssS'dDocent_Contig_12539_29'
p1853
(dp1854
F130.0
g3
sF100.0
g4
ssS'dDocent_Contig_10398_18'
p1855
(dp1856
F120.0
g3
sF100.0
g4
ssS'dDocent_Contig_9619_13'
p1857
(dp1858
F120.0
g4
sF110.0
g3
ssS'dDocent_Contig_24179_22'
p1859
(dp1860
F120.0
g3
sF100.0
g4
ssS'dDocent_Contig_21123_38'
p1861
(dp1862
F120.0
g4
sF100.0
g3
ssS'dDocent_Contig_3114_21'
p1863
(dp1864
F120.0
g4
sF100.0
g3
ssS'dDocent_Contig_5906_11'
p1865
(dp1866
F120.0
g4
sF110.0
g3
ssS'dDocent_Contig_55936_20'
p1867
(dp1868
F120.0
g4
sF100.0
g3
ssS'dDocent_Contig_38168_25'
p1869
(dp1870
F120.0
g3
sF130.0
g4
ssS'dDocent_Contig_77059_61'
p1871
(dp1872
F130.0
g4
sF110.0
g3
ssS'dDocent_Contig_19417_25'
p1873
(dp1874
F130.0
g3
sF110.0
g4
ssS'dDocent_Contig_27674_8'
p1875
(dp1876
F120.0
g3
sF100.0
g4
ssS'dDocent_Contig_48812_95'
p1877
(dp1878
F120.0
g4
sF110.0
g3
ssS'dDocent_Contig_14342_9'
p1879
(dp1880
F120.0
g4
sF110.0
g3
ssS'dDocent_Contig_30617_39'
p1881
(dp1882
F130.0
g4
sF110.0
g3
ssS'dDocent_Contig_26321_44'
p1883
(dp1884
F130.0
g3
sF110.0
g4
ssS'dDocent_Contig_18251_14'
p1885
(dp1886
F130.0
g4
sF110.0
g3
ssS'dDocent_Contig_53958_16'
p1887
(dp1888
F130.0
g3
sF110.0
g4
ssS'dDocent_Contig_93695_11'
p1889
(dp1890
F130.0
g3
sF110.0
g4
ssS'dDocent_Contig_15144_16'
p1891
(dp1892
F120.0
g3
sF100.0
g4
ssS'dDocent_Contig_40739_33'
p1893
(dp1894
F120.0
g3
sF100.0
g4
ssS'dDocent_Contig_60716_132'
p1895
(dp1896
F120.0
g4
sF100.0
g3
ssS'dDocent_Contig_60825_21'
p1897
(dp1898
F120.0
g3
sF100.0
g4
ssS'dDocent_Contig_26482_43'
p1899
(dp1900
F130.0
g4
sF110.0
g3
ssS'dDocent_Contig_41550_7'
p1901
(dp1902
F120.0
g4
sF100.0
g3
ssS'dDocent_Contig_42433_174'
p1903
(dp1904
F120.0
g3
sF110.0
g4
ssS'dDocent_Contig_10036_32'
p1905
(dp1906
F130.0
g4
sF100.0
g3
ssS'dDocent_Contig_15566_11'
p1907
(dp1908
F100.0
g4
sF110.0
g3
ssS'dDocent_Contig_18769_15'
p1909
(dp1910
F130.0
g4
sF110.0
g3
ssS'dDocent_Contig_48682_27'
p1911
(dp1912
F120.0
g3
sF100.0
g4
ssS'dDocent_Contig_20142_9'
p1913
(dp1914
F120.0
g4
sF100.0
g3
ssS'dDocent_Contig_62652_12'
p1915
(dp1916
F120.0
g3
sF110.0
g4
ssS'dDocent_Contig_85779_24'
p1917
(dp1918
F130.0
g4
sF110.0
g3
ssS'dDocent_Contig_51210_9'
p1919
(dp1920
F120.0
g3
sF100.0
g4
ssS'dDocent_Contig_42155_27'
p1921
(dp1922
F130.0
g4
sF110.0
g3
ssS'dDocent_Contig_35197_114'
p1923
(dp1924
F120.0
g3
sF100.0
g4
ssS'dDocent_Contig_49583_24'
p1925
(dp1926
F120.0
g4
sF130.0
g3
ssS'dDocent_Contig_15361_16'
p1927
(dp1928
F130.0
g3
sF110.0
g4
ssS'dDocent_Contig_83239_106'
p1929
(dp1930
F130.0
g4
sF110.0
g3
ssS'dDocent_Contig_8201_11'
p1931
(dp1932
F130.0
g3
sF110.0
g4
ssS'dDocent_Contig_17295_23'
p1933
(dp1934
F130.0
g4
sF110.0
g3
ssS'dDocent_Contig_29056_25'
p1935
(dp1936
F100.0
g4
sF110.0
g3
ssS'dDocent_Contig_13811_75'
p1937
(dp1938
F120.0
g3
sF100.0
g4
ssS'dDocent_Contig_74308_13'
p1939
(dp1940
F120.0
g3
sF110.0
g4
ssS'dDocent_Contig_1431_42'
p1941
(dp1942
F120.0
g3
sF100.0
g4
ssS'dDocent_Contig_19202_52'
p1943
(dp1944
F130.0
g3
sF110.0
g4
ssS'dDocent_Contig_925_15'
p1945
(dp1946
F120.0
g3
sF100.0
g4
ssS'dDocent_Contig_38317_46'
p1947
(dp1948
F130.0
g4
sF110.0
g3
ssS'dDocent_Contig_27703_94'
p1949
(dp1950
F130.0
g4
sF110.0
g3
ssS'dDocent_Contig_27664_64'
p1951
(dp1952
F120.0
g3
sF100.0
g4
ssS'dDocent_Contig_52353_14'
p1953
(dp1954
F120.0
g3
sF100.0
g4
ssS'dDocent_Contig_78339_27'
p1955
(dp1956
F120.0
g4
sF100.0
g3
ssS'dDocent_Contig_32948_40'
p1957
(dp1958
F120.0
g3
sF130.0
g4
ssS'dDocent_Contig_12123_76'
p1959
(dp1960
F130.0
g3
sF110.0
g4
ssS'dDocent_Contig_43587_113'
p1961
(dp1962
F130.0
g4
sF110.0
g3
ssS'dDocent_Contig_52371_12'
p1963
(dp1964
F120.0
g3
sF100.0
g4
ssS'dDocent_Contig_50306_65'
p1965
(dp1966
F130.0
g4
sF100.0
g3
ssS'dDocent_Contig_12564_36'
p1967
(dp1968
F130.0
g3
sF110.0
g4
ssS'dDocent_Contig_9758_79'
p1969
(dp1970
F120.0
g3
sF100.0
g4
ssS'dDocent_Contig_10944_38'
p1971
(dp1972
F130.0
g4
sF110.0
g3
ssS'dDocent_Contig_12682_16'
p1973
(dp1974
F120.0
g4
sF110.0
g3
ssS'dDocent_Contig_12547_30'
p1975
(dp1976
F120.0
g3
sF130.0
g4
ssS'dDocent_Contig_39905_31'
p1977
(dp1978
F130.0
g4
sF110.0
g3
ssS'dDocent_Contig_50655_82'
p1979
(dp1980
F120.0
g3
sF130.0
g4
ssS'dDocent_Contig_13855_87'
p1981
(dp1982
F130.0
g4
sF110.0
g3
ssS'dDocent_Contig_58577_13'
p1983
(dp1984
F130.0
g4
sF110.0
g3
ssS'dDocent_Contig_4185_127'
p1985
(dp1986
F120.0
g4
sF100.0
g3
ssS'dDocent_Contig_11082_7'
p1987
(dp1988
F120.0
g3
sF100.0
g4
ssS'dDocent_Contig_52025_104'
p1989
(dp1990
F120.0
g3
sF100.0
g4
ssS'dDocent_Contig_38561_10'
p1991
(dp1992
F130.0
g4
sF110.0
g3
ssS'dDocent_Contig_23674_47'
p1993
(dp1994
F120.0
g3
sF100.0
g4
ssS'dDocent_Contig_29901_35'
p1995
(dp1996
F130.0
g3
sF110.0
g4
ssS'dDocent_Contig_63342_11'
p1997
(dp1998
F120.0
g3
sF130.0
g4
ssS'dDocent_Contig_19565_48'
p1999
(dp2000
F120.0
g4
sF100.0
g3
ssS'dDocent_Contig_7116_159'
p2001
(dp2002
F130.0
g4
sF110.0
g3
ssS'dDocent_Contig_32168_13'
p2003
(dp2004
F130.0
g4
sF110.0
g3
ssS'dDocent_Contig_21737_104'
p2005
(dp2006
F100.0
g4
sF110.0
g3
ssS'dDocent_Contig_11268_58'
p2007
(dp2008
F130.0
g3
sF110.0
g4
ssS'dDocent_Contig_12169_13'
p2009
(dp2010
F130.0
g3
sF110.0
g4
ssS'dDocent_Contig_21989_10'
p2011
(dp2012
F130.0
g4
sF110.0
g3
ssS'dDocent_Contig_83491_48'
p2013
(dp2014
F120.0
g4
sF100.0
g3
ssS'dDocent_Contig_1680_39'
p2015
(dp2016
F130.0
g4
sF110.0
g3
ssS'dDocent_Contig_18506_29'
p2017
(dp2018
F130.0
g4
sF110.0
g3
ssS'dDocent_Contig_40909_62'
p2019
(dp2020
F130.0
g4
sF110.0
g3
ssS'dDocent_Contig_87632_28'
p2021
(dp2022
F120.0
g4
sF100.0
g3
ssS'dDocent_Contig_17836_36'
p2023
(dp2024
F130.0
g3
sF110.0
g4
ssS'dDocent_Contig_24025_28'
p2025
(dp2026
F120.0
g4
sF100.0
g3
ssS'dDocent_Contig_12158_39'
p2027
(dp2028
F120.0
g4
sF100.0
g3
ssS'dDocent_Contig_70762_36'
p2029
(dp2030
F120.0
g4
sF110.0
g3
ssS'dDocent_Contig_40265_37'
p2031
(dp2032
F130.0
g3
sF110.0
g4
ssS'dDocent_Contig_41414_36'
p2033
(dp2034
F120.0
g4
sF100.0
g3
ssS'dDocent_Contig_5946_7'
p2035
(dp2036
F120.0
g3
sF110.0
g4
ssS'dDocent_Contig_7187_8'
p2037
(dp2038
F120.0
g4
sF130.0
g3
ssS'dDocent_Contig_8325_28'
p2039
(dp2040
F130.0
g3
sF100.0
g4
ssS'dDocent_Contig_28146_57'
p2041
(dp2042
F130.0
g3
sF110.0
g4
ssS'dDocent_Contig_45708_8'
p2043
(dp2044
F130.0
g4
sF110.0
g3
ssS'dDocent_Contig_22131_103'
p2045
(dp2046
F130.0
g4
sF110.0
g3
ssS'dDocent_Contig_16464_18'
p2047
(dp2048
F120.0
g4
sF100.0
g3
ssS'dDocent_Contig_45634_11'
p2049
(dp2050
F120.0
g3
sF100.0
g4
ssS'dDocent_Contig_2889_24'
p2051
(dp2052
F120.0
g4
sF100.0
g3
ssS'dDocent_Contig_18446_8'
p2053
(dp2054
F120.0
g4
sF110.0
g3
ssS'dDocent_Contig_44056_66'
p2055
(dp2056
F120.0
g3
sF100.0
g4
ssS'dDocent_Contig_40534_55'
p2057
(dp2058
F130.0
g3
sF110.0
g4
ssS'dDocent_Contig_22317_31'
p2059
(dp2060
F120.0
g3
sF100.0
g4
ssS'dDocent_Contig_2389_34'
p2061
(dp2062
F120.0
g3
sF130.0
g4
ssS'dDocent_Contig_27055_13'
p2063
(dp2064
F130.0
g3
sF110.0
g4
ssS'dDocent_Contig_34441_119'
p2065
(dp2066
F130.0
g3
sF110.0
g4
ssS'dDocent_Contig_32235_27'
p2067
(dp2068
F130.0
g4
sF110.0
g3
ssS'dDocent_Contig_49093_11'
p2069
(dp2070
F100.0
g3
sF110.0
g4
ssS'dDocent_Contig_72726_34'
p2071
(dp2072
F120.0
g3
sF100.0
g4
ssS'dDocent_Contig_467_100'
p2073
(dp2074
F130.0
g4
sF110.0
g3
ssS'dDocent_Contig_65736_22'
p2075
(dp2076
F100.0
g3
sF110.0
g4
ssS'dDocent_Contig_19325_56'
p2077
(dp2078
F130.0
g4
sF110.0
g3
ssS'dDocent_Contig_24928_24'
p2079
(dp2080
F130.0
g3
sF110.0
g4
ssS'dDocent_Contig_31746_25'
p2081
(dp2082
F100.0
g3
sF110.0
g4
ssS'dDocent_Contig_26669_77'
p2083
(dp2084
F130.0
g4
sF100.0
g3
ssS'dDocent_Contig_38300_128'
p2085
(dp2086
F100.0
g4
sF110.0
g3
ssS'dDocent_Contig_77919_22'
p2087
(dp2088
F130.0
g4
sF110.0
g3
ssS'dDocent_Contig_55603_140'
p2089
(dp2090
F120.0
g3
sF100.0
g4
ssS'dDocent_Contig_12317_22'
p2091
(dp2092
F130.0
g3
sF110.0
g4
ssS'dDocent_Contig_22563_8'
p2093
(dp2094
F100.0
g4
sF110.0
g3
ssS'dDocent_Contig_19356_22'
p2095
(dp2096
F120.0
g3
sF100.0
g4
ssS'dDocent_Contig_36409_65'
p2097
(dp2098
F130.0
g3
sF110.0
g4
ssS'dDocent_Contig_35539_42'
p2099
(dp2100
F100.0
g4
sF110.0
g3
ssS'dDocent_Contig_2851_7'
p2101
(dp2102
F120.0
g4
sF110.0
g3
ssS'dDocent_Contig_15999_7'
p2103
(dp2104
F130.0
g3
sF110.0
g4
ssS'dDocent_Contig_12385_74'
p2105
(dp2106
F130.0
g3
sF110.0
g4
ssS'dDocent_Contig_45120_230'
p2107
(dp2108
F130.0
g3
sF110.0
g4
ssS'dDocent_Contig_47294_54'
p2109
(dp2110
F120.0
g4
sF100.0
g3
ssS'dDocent_Contig_32570_19'
p2111
(dp2112
F120.0
g3
sF100.0
g4
ssS'dDocent_Contig_34175_154'
p2113
(dp2114
F100.0
g4
sF110.0
g3
ssS'dDocent_Contig_10613_36'
p2115
(dp2116
F130.0
g3
sF110.0
g4
ssS'dDocent_Contig_14575_26'
p2117
(dp2118
F120.0
g3
sF100.0
g4
ssS'dDocent_Contig_22699_66'
p2119
(dp2120
F120.0
g4
sF100.0
g3
ssS'dDocent_Contig_2457_105'
p2121
(dp2122
F120.0
g4
sF100.0
g3
ssS'dDocent_Contig_63483_17'
p2123
(dp2124
F120.0
g3
sF100.0
g4
ssS'dDocent_Contig_20052_26'
p2125
(dp2126
F120.0
g4
sF100.0
g3
ssS'dDocent_Contig_85502_37'
p2127
(dp2128
F100.0
g4
sF110.0
g3
ssS'dDocent_Contig_11180_75'
p2129
(dp2130
F100.0
g3
sF110.0
g4
ssS'dDocent_Contig_5805_26'
p2131
(dp2132
F120.0
g4
sF100.0
g3
ssS'dDocent_Contig_6189_46'
p2133
(dp2134
F120.0
g3
sF100.0
g4
ssS'dDocent_Contig_32429_40'
p2135
(dp2136
F120.0
g4
sF130.0
g3
ssS'dDocent_Contig_60370_56'
p2137
(dp2138
F120.0
g3
sF100.0
g4
ssS'dDocent_Contig_53392_9'
p2139
(dp2140
F120.0
g4
sF100.0
g3
ssS'dDocent_Contig_33900_9'
p2141
(dp2142
F100.0
g3
sF110.0
g4
ssS'dDocent_Contig_3158_181'
p2143
(dp2144
F120.0
g4
sF130.0
g3
ssS'dDocent_Contig_13245_64'
p2145
(dp2146
F120.0
g4
sF100.0
g3
ssS'dDocent_Contig_76189_34'
p2147
(dp2148
F100.0
g3
sF110.0
g4
ssS'dDocent_Contig_69197_17'
p2149
(dp2150
F120.0
g4
sF100.0
g3
ssS'dDocent_Contig_2757_31'
p2151
(dp2152
F130.0
g4
sF110.0
g3
ssS'dDocent_Contig_15573_13'
p2153
(dp2154
F120.0
g4
sF100.0
g3
ssS'dDocent_Contig_14641_31'
p2155
(dp2156
F120.0
g3
sF100.0
g4
ssS'dDocent_Contig_43205_66'
p2157
(dp2158
F130.0
g3
sF110.0
g4
ssS'dDocent_Contig_21583_31'
p2159
(dp2160
F130.0
g4
sF110.0
g3
ssS'dDocent_Contig_18800_22'
p2161
(dp2162
F120.0
g4
sF100.0
g3
ssS'dDocent_Contig_30024_149'
p2163
(dp2164
F120.0
g4
sF100.0
g3
ssS'dDocent_Contig_16781_87'
p2165
(dp2166
F120.0
g4
sF100.0
g3
ssS'dDocent_Contig_14830_41'
p2167
(dp2168
F120.0
g4
sF100.0
g3
ssS'dDocent_Contig_11610_23'
p2169
(dp2170
F100.0
g4
sF110.0
g3
ssS'dDocent_Contig_52536_78'
p2171
(dp2172
F120.0
g4
sF110.0
g3
ssS'dDocent_Contig_20295_16'
p2173
(dp2174
F120.0
g4
sF100.0
g3
ssS'dDocent_Contig_81940_92'
p2175
(dp2176
F120.0
g4
sF100.0
g3
ssS'dDocent_Contig_8233_69'
p2177
(dp2178
F130.0
g3
sF110.0
g4
ssS'dDocent_Contig_16431_58'
p2179
(dp2180
F120.0
g4
sF130.0
g3
ssS'dDocent_Contig_12303_51'
p2181
(dp2182
F130.0
g4
sF100.0
g3
ssS'dDocent_Contig_20820_59'
p2183
(dp2184
F100.0
g3
sF110.0
g4
ssS'dDocent_Contig_1691_50'
p2185
(dp2186
F130.0
g4
sF110.0
g3
ssS'dDocent_Contig_5071_14'
p2187
(dp2188
F130.0
g3
sF110.0
g4
ssS'dDocent_Contig_16037_105'
p2189
(dp2190
F130.0
g3
sF110.0
g4
ssS'dDocent_Contig_57428_20'
p2191
(dp2192
F130.0
g3
sF110.0
g4
ssS'dDocent_Contig_57_23'
p2193
(dp2194
F130.0
g3
sF110.0
g4
ssS'dDocent_Contig_8337_15'
p2195
(dp2196
F130.0
g4
sF110.0
g3
ssS'dDocent_Contig_12810_22'
p2197
(dp2198
F130.0
g3
sF110.0
g4
ssS'dDocent_Contig_10878_18'
p2199
(dp2200
F120.0
g3
sF110.0
g4
ssS'dDocent_Contig_39711_7'
p2201
(dp2202
F120.0
g4
sF130.0
g3
ssS'dDocent_Contig_57048_54'
p2203
(dp2204
F130.0
g3
sF110.0
g4
ssS'dDocent_Contig_18350_91'
p2205
(dp2206
F130.0
g3
sF110.0
g4
ssS'dDocent_Contig_21435_15'
p2207
(dp2208
F130.0
g3
sF110.0
g4
ssS'dDocent_Contig_1907_62'
p2209
(dp2210
F130.0
g3
sF110.0
g4
ssS'dDocent_Contig_51031_53'
p2211
(dp2212
F120.0
g4
sF110.0
g3
ssS'dDocent_Contig_60484_31'
p2213
(dp2214
F130.0
g3
sF110.0
g4
ssS'dDocent_Contig_25324_70'
p2215
(dp2216
F120.0
g3
sF100.0
g4
ssS'dDocent_Contig_4911_70'
p2217
(dp2218
F130.0
g3
sF110.0
g4
ssS'dDocent_Contig_45723_91'
p2219
(dp2220
F130.0
g4
sF110.0
g3
ssS'dDocent_Contig_35513_137'
p2221
(dp2222
F120.0
g4
sF100.0
g3
ssS'dDocent_Contig_7494_34'
p2223
(dp2224
F130.0
g4
sF100.0
g3
ssS'dDocent_Contig_23224_17'
p2225
(dp2226
F130.0
g3
sF110.0
g4
ssS'dDocent_Contig_53583_16'
p2227
(dp2228
F120.0
g3
sF100.0
g4
ssS'dDocent_Contig_15329_31'
p2229
(dp2230
F120.0
g3
sF100.0
g4
ssS'dDocent_Contig_4467_23'
p2231
(dp2232
F120.0
g3
sF100.0
g4
ssS'dDocent_Contig_41404_32'
p2233
(dp2234
F130.0
g3
sF100.0
g4
ssS'dDocent_Contig_4598_43'
p2235
(dp2236
F120.0
g4
sF100.0
g3
ssS'dDocent_Contig_1941_35'
p2237
(dp2238
F120.0
g4
sF130.0
g3
ssS'dDocent_Contig_53137_108'
p2239
(dp2240
F120.0
g3
sF100.0
g4
ssS'dDocent_Contig_70909_82'
p2241
(dp2242
F120.0
g3
sF110.0
g4
ssS'dDocent_Contig_76641_101'
p2243
(dp2244
F130.0
g4
sF110.0
g3
ssS'dDocent_Contig_10111_74'
p2245
(dp2246
F100.0
g3
sF110.0
g4
ssS'dDocent_Contig_82380_36'
p2247
(dp2248
F120.0
g4
sF100.0
g3
ssS'dDocent_Contig_30866_13'
p2249
(dp2250
F120.0
g4
sF100.0
g3
ssS'dDocent_Contig_43887_46'
p2251
(dp2252
F120.0
g4
sF100.0
g3
ssS'dDocent_Contig_37662_16'
p2253
(dp2254
F120.0
g4
sF100.0
g3
ssS'dDocent_Contig_11941_20'
p2255
(dp2256
F120.0
g4
sF100.0
g3
ssS'dDocent_Contig_11160_26'
p2257
(dp2258
F120.0
g4
sF100.0
g3
ssS'dDocent_Contig_18000_19'
p2259
(dp2260
F100.0
g4
sF110.0
g3
ssS'dDocent_Contig_2070_122'
p2261
(dp2262
F130.0
g4
sF110.0
g3
ssS'dDocent_Contig_31312_45'
p2263
(dp2264
F120.0
g4
sF100.0
g3
ssS'dDocent_Contig_72880_17'
p2265
(dp2266
F130.0
g4
sF100.0
g3
ssS'dDocent_Contig_31336_43'
p2267
(dp2268
F130.0
g4
sF110.0
g3
ssS'dDocent_Contig_24583_45'
p2269
(dp2270
F130.0
g3
sF110.0
g4
ssS'dDocent_Contig_41586_155'
p2271
(dp2272
F120.0
g4
sF100.0
g3
ssS'dDocent_Contig_83405_15'
p2273
(dp2274
F130.0
g3
sF110.0
g4
ssS'dDocent_Contig_3658_37'
p2275
(dp2276
F130.0
g4
sF100.0
g3
ssS'dDocent_Contig_3156_23'
p2277
(dp2278
F120.0
g4
sF100.0
g3
ssS'dDocent_Contig_18259_38'
p2279
(dp2280
F100.0
g3
sF110.0
g4
ssS'dDocent_Contig_11209_50'
p2281
(dp2282
F120.0
g4
sF100.0
g3
ssS'dDocent_Contig_76171_31'
p2283
(dp2284
F130.0
g3
sF110.0
g4
ssS'dDocent_Contig_14478_41'
p2285
(dp2286
F100.0
g3
sF110.0
g4
ssS'dDocent_Contig_23378_11'
p2287
(dp2288
F120.0
g4
sF130.0
g3
ssS'dDocent_Contig_46850_8'
p2289
(dp2290
F120.0
g4
sF100.0
g3
ssS'dDocent_Contig_16215_55'
p2291
(dp2292
F130.0
g3
sF110.0
g4
ssS'dDocent_Contig_23011_42'
p2293
(dp2294
F130.0
g4
sF110.0
g3
ssS'dDocent_Contig_47723_19'
p2295
(dp2296
F130.0
g4
sF110.0
g3
ssS'dDocent_Contig_29456_19'
p2297
(dp2298
F120.0
g3
sF100.0
g4
ssS'dDocent_Contig_3002_10'
p2299
(dp2300
F100.0
g3
sF110.0
g4
ssS'dDocent_Contig_77182_72'
p2301
(dp2302
F100.0
g3
sF110.0
g4
ssS'dDocent_Contig_14439_160'
p2303
(dp2304
F120.0
g4
sF100.0
g3
ssS'dDocent_Contig_41048_46'
p2305
(dp2306
F130.0
g3
sF110.0
g4
ssS'dDocent_Contig_3641_34'
p2307
(dp2308
F120.0
g3
sF100.0
g4
ssS'dDocent_Contig_71173_24'
p2309
(dp2310
F120.0
g4
sF100.0
g3
ssS'dDocent_Contig_28517_99'
p2311
(dp2312
F120.0
g3
sF130.0
g4
ssS'dDocent_Contig_7293_21'
p2313
(dp2314
F120.0
g4
sF100.0
g3
ssS'dDocent_Contig_3815_25'
p2315
(dp2316
F130.0
g3
sF110.0
g4
ssS'dDocent_Contig_50002_36'
p2317
(dp2318
F120.0
g4
sF110.0
g3
ssS'dDocent_Contig_803_97'
p2319
(dp2320
F130.0
g3
sF110.0
g4
ssS'dDocent_Contig_31499_53'
p2321
(dp2322
F100.0
g3
sF110.0
g4
ssS'dDocent_Contig_30238_54'
p2323
(dp2324
F120.0
g4
sF110.0
g3
ssS'dDocent_Contig_90720_42'
p2325
(dp2326
F100.0
g3
sF110.0
g4
ssS'dDocent_Contig_13317_184'
p2327
(dp2328
F120.0
g3
sF100.0
g4
ssS'dDocent_Contig_14735_33'
p2329
(dp2330
F120.0
g3
sF100.0
g4
ssS'dDocent_Contig_6172_16'
p2331
(dp2332
F130.0
g4
sF110.0
g3
ssS'dDocent_Contig_35122_83'
p2333
(dp2334
F120.0
g3
sF130.0
g4
ssS'dDocent_Contig_7476_71'
p2335
(dp2336
F130.0
g4
sF110.0
g3
ssS'dDocent_Contig_56974_33'
p2337
(dp2338
F120.0
g3
sF100.0
g4
ssS'dDocent_Contig_85480_25'
p2339
(dp2340
F130.0
g4
sF110.0
g3
ssS'dDocent_Contig_41462_61'
p2341
(dp2342
F120.0
g3
sF100.0
g4
ssS'dDocent_Contig_74513_46'
p2343
(dp2344
F130.0
g3
sF110.0
g4
ssS'dDocent_Contig_8508_9'
p2345
(dp2346
F130.0
g3
sF100.0
g4
ssS'dDocent_Contig_29187_34'
p2347
(dp2348
F130.0
g3
sF110.0
g4
ssS'dDocent_Contig_49009_81'
p2349
(dp2350
F120.0
g3
sF100.0
g4
ssS'dDocent_Contig_12518_9'
p2351
(dp2352
F100.0
g4
sF110.0
g3
ssS'dDocent_Contig_11367_75'
p2353
(dp2354
F130.0
g3
sF110.0
g4
ssS'dDocent_Contig_20172_9'
p2355
(dp2356
F120.0
g4
sF100.0
g3
ssS'dDocent_Contig_34075_121'
p2357
(dp2358
F120.0
g4
sF100.0
g3
ssS'dDocent_Contig_8759_31'
p2359
(dp2360
F120.0
g3
sF110.0
g4
ssS'dDocent_Contig_36269_20'
p2361
(dp2362
F120.0
g3
sF100.0
g4
ssS'dDocent_Contig_16261_52'
p2363
(dp2364
F100.0
g4
sF110.0
g3
ssS'dDocent_Contig_33746_104'
p2365
(dp2366
F130.0
g4
sF110.0
g3
ssS'dDocent_Contig_28288_26'
p2367
(dp2368
F120.0
g4
sF100.0
g3
ssS'dDocent_Contig_7427_17'
p2369
(dp2370
F120.0
g4
sF100.0
g3
ssS'dDocent_Contig_19567_21'
p2371
(dp2372
F130.0
g3
sF110.0
g4
ssS'dDocent_Contig_55365_52'
p2373
(dp2374
F130.0
g4
sF110.0
g3
ssS'dDocent_Contig_4255_45'
p2375
(dp2376
F130.0
g3
sF100.0
g4
ssS'dDocent_Contig_9951_58'
p2377
(dp2378
F130.0
g3
sF110.0
g4
ssS'dDocent_Contig_36408_120'
p2379
(dp2380
F120.0
g4
sF100.0
g3
ssS'dDocent_Contig_10241_20'
p2381
(dp2382
F130.0
g3
sF110.0
g4
ssS'dDocent_Contig_57861_61'
p2383
(dp2384
F120.0
g3
sF130.0
g4
ssS'dDocent_Contig_6213_15'
p2385
(dp2386
F120.0
g4
sF110.0
g3
ssS'dDocent_Contig_9337_74'
p2387
(dp2388
F120.0
g3
sF100.0
g4
ssS'dDocent_Contig_15864_19'
p2389
(dp2390
F120.0
g3
sF130.0
g4
ssS'dDocent_Contig_58047_41'
p2391
(dp2392
F120.0
g4
sF100.0
g3
ssS'dDocent_Contig_37831_45'
p2393
(dp2394
F120.0
g3
sF100.0
g4
ssS'dDocent_Contig_37171_84'
p2395
(dp2396
F120.0
g3
sF100.0
g4
ssS'dDocent_Contig_25005_64'
p2397
(dp2398
F120.0
g3
sF100.0
g4
ssS'dDocent_Contig_10180_88'
p2399
(dp2400
F120.0
g3
sF100.0
g4
ssS'dDocent_Contig_14473_60'
p2401
(dp2402
F130.0
g4
sF110.0
g3
ssS'dDocent_Contig_10501_21'
p2403
(dp2404
F130.0
g3
sF110.0
g4
ssS'dDocent_Contig_1734_8'
p2405
(dp2406
F130.0
g3
sF110.0
g4
ssS'dDocent_Contig_10802_38'
p2407
(dp2408
F130.0
g4
sF110.0
g3
ssS'dDocent_Contig_41711_90'
p2409
(dp2410
F130.0
g4
sF100.0
g3
ssS'dDocent_Contig_8229_37'
p2411
(dp2412
F120.0
g4
sF100.0
g3
ssS'dDocent_Contig_53376_21'
p2413
(dp2414
F120.0
g4
sF100.0
g3
ssS'dDocent_Contig_9496_9'
p2415
(dp2416
F130.0
g4
sF110.0
g3
ssS'dDocent_Contig_22910_25'
p2417
(dp2418
F130.0
g3
sF110.0
g4
ssS'dDocent_Contig_41699_117'
p2419
(dp2420
F120.0
g3
sF110.0
g4
ssS'dDocent_Contig_10324_9'
p2421
(dp2422
F130.0
g4
sF110.0
g3
ssS'dDocent_Contig_33403_17'
p2423
(dp2424
F130.0
g3
sF110.0
g4
ssS'dDocent_Contig_47869_173'
p2425
(dp2426
F130.0
g4
sF110.0
g3
ssS'dDocent_Contig_20320_63'
p2427
(dp2428
F100.0
g3
sF110.0
g4
ssS'dDocent_Contig_14219_35'
p2429
(dp2430
F130.0
g3
sF100.0
g4
ssS'dDocent_Contig_16862_7'
p2431
(dp2432
F100.0
g4
sF110.0
g3
ssS'dDocent_Contig_8083_28'
p2433
(dp2434
F120.0
g4
sF100.0
g3
ssS'dDocent_Contig_3292_36'
p2435
(dp2436
F120.0
g4
sF100.0
g3
ssS'dDocent_Contig_26795_65'
p2437
(dp2438
F120.0
g3
sF130.0
g4
ssS'dDocent_Contig_21510_9'
p2439
(dp2440
F120.0
g3
sF100.0
g4
ssS'dDocent_Contig_39712_14'
p2441
(dp2442
F120.0
g4
sF110.0
g3
ssS'dDocent_Contig_40682_19'
p2443
(dp2444
F120.0
g4
sF100.0
g3
ssS'dDocent_Contig_16929_7'
p2445
(dp2446
F130.0
g3
sF110.0
g4
ssS'dDocent_Contig_21937_23'
p2447
(dp2448
F120.0
g4
sF110.0
g3
ssS'dDocent_Contig_75474_23'
p2449
(dp2450
F130.0
g3
sF110.0
g4
ssS'dDocent_Contig_20799_31'
p2451
(dp2452
F130.0
g4
sF110.0
g3
ssS'dDocent_Contig_36278_39'
p2453
(dp2454
F120.0
g4
sF110.0
g3
ssS'dDocent_Contig_13849_22'
p2455
(dp2456
F120.0
g3
sF100.0
g4
ssS'dDocent_Contig_16663_161'
p2457
(dp2458
F130.0
g3
sF100.0
g4
ssS'dDocent_Contig_5332_25'
p2459
(dp2460
F130.0
g4
sF110.0
g3
ssS'dDocent_Contig_59048_119'
p2461
(dp2462
F130.0
g4
sF100.0
g3
ssS'dDocent_Contig_61543_72'
p2463
(dp2464
F120.0
g3
sF100.0
g4
ssS'dDocent_Contig_83769_40'
p2465
(dp2466
F130.0
g3
sF110.0
g4
ssS'dDocent_Contig_7709_21'
p2467
(dp2468
F120.0
g4
sF100.0
g3
ssS'dDocent_Contig_30603_7'
p2469
(dp2470
F130.0
g4
sF110.0
g3
ssS'dDocent_Contig_25779_34'
p2471
(dp2472
F130.0
g4
sF110.0
g3
ssS'dDocent_Contig_46296_46'
p2473
(dp2474
F120.0
g4
sF130.0
g3
ssS'dDocent_Contig_17326_15'
p2475
(dp2476
F120.0
g4
sF110.0
g3
ssS'dDocent_Contig_29723_14'
p2477
(dp2478
F130.0
g3
sF110.0
g4
ssS'dDocent_Contig_57089_41'
p2479
(dp2480
F120.0
g4
sF100.0
g3
ssS'dDocent_Contig_1289_70'
p2481
(dp2482
F120.0
g4
sF110.0
g3
ssS'dDocent_Contig_26345_175'
p2483
(dp2484
F130.0
g3
sF110.0
g4
ssS'dDocent_Contig_37481_69'
p2485
(dp2486
F120.0
g4
sF100.0
g3
ssS'dDocent_Contig_37482_29'
p2487
(dp2488
F120.0
g3
sF100.0
g4
ssS'dDocent_Contig_11911_32'
p2489
(dp2490
F130.0
g4
sF110.0
g3
ssS'dDocent_Contig_28566_46'
p2491
(dp2492
F120.0
g4
sF110.0
g3
ssS'dDocent_Contig_894_8'
p2493
(dp2494
F120.0
g4
sF100.0
g3
ssS'dDocent_Contig_72934_51'
p2495
(dp2496
F130.0
g3
sF110.0
g4
ssS'dDocent_Contig_18106_9'
p2497
(dp2498
F130.0
g4
sF100.0
g3
ssS'dDocent_Contig_16779_37'
p2499
(dp2500
F120.0
g4
sF130.0
g3
ssS'dDocent_Contig_63813_41'
p2501
(dp2502
F130.0
g4
sF110.0
g3
ssS'dDocent_Contig_89472_88'
p2503
(dp2504
F130.0
g4
sF100.0
g3
ssS'dDocent_Contig_11370_46'
p2505
(dp2506
F120.0
g4
sF100.0
g3
ssS'dDocent_Contig_7327_28'
p2507
(dp2508
F120.0
g3
sF100.0
g4
ssS'dDocent_Contig_7541_12'
p2509
(dp2510
F130.0
g4
sF110.0
g3
ssS'dDocent_Contig_15946_35'
p2511
(dp2512
F120.0
g3
sF130.0
g4
ssS'dDocent_Contig_11866_24'
p2513
(dp2514
F120.0
g3
sF100.0
g4
ssS'dDocent_Contig_6277_35'
p2515
(dp2516
F130.0
g3
sF110.0
g4
ssS'dDocent_Contig_1343_7'
p2517
(dp2518
F120.0
g4
sF100.0
g3
ssS'dDocent_Contig_14057_67'
p2519
(dp2520
F130.0
g3
sF110.0
g4
ssS'dDocent_Contig_43396_8'
p2521
(dp2522
F120.0
g3
sF100.0
g4
ssS'dDocent_Contig_33099_8'
p2523
(dp2524
F120.0
g3
sF100.0
g4
ssS'dDocent_Contig_3042_8'
p2525
(dp2526
F120.0
g4
sF110.0
g3
ssS'dDocent_Contig_36788_11'
p2527
(dp2528
F120.0
g3
sF100.0
g4
ssS'dDocent_Contig_23602_106'
p2529
(dp2530
F130.0
g4
sF110.0
g3
ssS'dDocent_Contig_16317_10'
p2531
(dp2532
F120.0
g4
sF100.0
g3
ssS'dDocent_Contig_11447_77'
p2533
(dp2534
F120.0
g4
sF100.0
g3
ssS'dDocent_Contig_10100_36'
p2535
(dp2536
F120.0
g4
sF130.0
g3
ssS'dDocent_Contig_16883_52'
p2537
(dp2538
F130.0
g3
sF110.0
g4
ssS'dDocent_Contig_828_72'
p2539
(dp2540
F130.0
g3
sF110.0
g4
ssS'dDocent_Contig_25241_61'
p2541
(dp2542
F130.0
g4
sF110.0
g3
ssS'dDocent_Contig_38737_21'
p2543
(dp2544
F120.0
g4
sF130.0
g3
ssS'dDocent_Contig_16053_8'
p2545
(dp2546
F120.0
g3
sF110.0
g4
ssS'dDocent_Contig_37228_15'
p2547
(dp2548
F120.0
g3
sF100.0
g4
ssS'dDocent_Contig_18270_9'
p2549
(dp2550
F130.0
g3
sF110.0
g4
ssS'dDocent_Contig_65853_64'
p2551
(dp2552
F120.0
g4
sF100.0
g3
ssS'dDocent_Contig_16423_23'
p2553
(dp2554
F130.0
g4
sF110.0
g3
ssS'dDocent_Contig_11019_51'
p2555
(dp2556
F120.0
g4
sF100.0
g3
ssS'dDocent_Contig_2916_26'
p2557
(dp2558
F130.0
g3
sF110.0
g4
ssS'dDocent_Contig_5342_49'
p2559
(dp2560
F130.0
g4
sF110.0
g3
ssS'dDocent_Contig_14408_39'
p2561
(dp2562
F130.0
g3
sF110.0
g4
ssS'dDocent_Contig_2665_14'
p2563
(dp2564
F130.0
g3
sF110.0
g4
ssS'dDocent_Contig_57803_244'
p2565
(dp2566
F120.0
g3
sF100.0
g4
ssS'dDocent_Contig_24726_20'
p2567
(dp2568
F130.0
g3
sF110.0
g4
ssS'dDocent_Contig_63493_80'
p2569
(dp2570
F120.0
g3
sF100.0
g4
ssS'dDocent_Contig_28656_70'
p2571
(dp2572
F130.0
g4
sF110.0
g3
ssS'dDocent_Contig_53253_15'
p2573
(dp2574
F120.0
g3
sF100.0
g4
ssS'dDocent_Contig_43552_32'
p2575
(dp2576
F120.0
g3
sF100.0
g4
ssS'dDocent_Contig_18427_21'
p2577
(dp2578
F130.0
g3
sF110.0
g4
ssS'dDocent_Contig_7065_22'
p2579
(dp2580
F130.0
g3
sF110.0
g4
ssS'dDocent_Contig_12583_8'
p2581
(dp2582
F120.0
g3
sF100.0
g4
ssS'dDocent_Contig_79994_25'
p2583
(dp2584
F130.0
g4
sF110.0
g3
ssS'dDocent_Contig_25186_80'
p2585
(dp2586
F130.0
g3
sF110.0
g4
ssS'dDocent_Contig_69367_23'
p2587
(dp2588
F130.0
g4
sF110.0
g3
ssS'dDocent_Contig_14232_12'
p2589
(dp2590
F100.0
g3
sF110.0
g4
ssS'dDocent_Contig_7943_36'
p2591
(dp2592
F100.0
g3
sF110.0
g4
ssS'dDocent_Contig_5354_41'
p2593
(dp2594
F120.0
g4
sF100.0
g3
ssS'dDocent_Contig_6643_17'
p2595
(dp2596
F130.0
g4
sF110.0
g3
ssS'dDocent_Contig_49876_24'
p2597
(dp2598
F120.0
g3
sF100.0
g4
ssS'dDocent_Contig_28637_45'
p2599
(dp2600
F130.0
g3
sF110.0
g4
ssS'dDocent_Contig_15677_24'
p2601
(dp2602
F120.0
g4
sF100.0
g3
ssS'dDocent_Contig_27488_34'
p2603
(dp2604
F120.0
g3
sF130.0
g4
ssS'dDocent_Contig_4755_22'
p2605
(dp2606
F120.0
g4
sF130.0
g3
ssS'dDocent_Contig_18392_11'
p2607
(dp2608
F130.0
g3
sF110.0
g4
ssS'dDocent_Contig_12649_99'
p2609
(dp2610
F120.0
g3
sF100.0
g4
ssS'dDocent_Contig_14510_51'
p2611
(dp2612
F130.0
g4
sF110.0
g3
ssS'dDocent_Contig_8575_10'
p2613
(dp2614
F130.0
g3
sF110.0
g4
ssS'dDocent_Contig_56058_10'
p2615
(dp2616
F130.0
g3
sF110.0
g4
ssS'dDocent_Contig_10920_94'
p2617
(dp2618
F120.0
g3
sF100.0
g4
ssS'dDocent_Contig_19424_68'
p2619
(dp2620
F120.0
g3
sF100.0
g4
ssS'dDocent_Contig_1007_14'
p2621
(dp2622
F130.0
g3
sF100.0
g4
ssS'dDocent_Contig_44955_76'
p2623
(dp2624
F120.0
g4
sF100.0
g3
ssS'dDocent_Contig_3108_24'
p2625
(dp2626
F130.0
g3
sF110.0
g4
ssS'dDocent_Contig_9646_28'
p2627
(dp2628
F120.0
g3
sF100.0
g4
ssS'dDocent_Contig_9819_21'
p2629
(dp2630
F130.0
g3
sF110.0
g4
ssS'dDocent_Contig_11462_17'
p2631
(dp2632
F130.0
g3
sF110.0
g4
ssS'dDocent_Contig_9108_46'
p2633
(dp2634
F130.0
g3
sF110.0
g4
ssS'dDocent_Contig_79006_11'
p2635
(dp2636
F120.0
g3
sF110.0
g4
ssS'dDocent_Contig_3249_16'
p2637
(dp2638
F130.0
g4
sF110.0
g3
ssS'dDocent_Contig_67970_58'
p2639
(dp2640
F120.0
g3
sF100.0
g4
ssS'dDocent_Contig_49584_90'
p2641
(dp2642
F120.0
g3
sF110.0
g4
ssS'dDocent_Contig_53327_49'
p2643
(dp2644
F120.0
g4
sF100.0
g3
ssS'dDocent_Contig_10147_17'
p2645
(dp2646
F100.0
g4
sF110.0
g3
ssS'dDocent_Contig_15257_67'
p2647
(dp2648
F100.0
g3
sF110.0
g4
ssS'dDocent_Contig_47173_12'
p2649
(dp2650
F120.0
g4
sF100.0
g3
ssS'dDocent_Contig_9023_243'
p2651
(dp2652
F120.0
g3
sF100.0
g4
ssS'dDocent_Contig_29042_49'
p2653
(dp2654
F120.0
g3
sF130.0
g4
ssS'dDocent_Contig_23070_21'
p2655
(dp2656
F130.0
g4
sF110.0
g3
ssS'dDocent_Contig_19428_11'
p2657
(dp2658
F130.0
g4
sF110.0
g3
ssS'dDocent_Contig_6600_7'
p2659
(dp2660
F100.0
g4
sF110.0
g3
ssS'dDocent_Contig_26126_99'
p2661
(dp2662
F120.0
g4
sF100.0
g3
ssS'dDocent_Contig_43869_28'
p2663
(dp2664
F100.0
g4
sF110.0
g3
ssS'dDocent_Contig_17267_19'
p2665
(dp2666
F120.0
g4
sF130.0
g3
ssS'dDocent_Contig_42566_10'
p2667
(dp2668
F100.0
g3
sF110.0
g4
ssS'dDocent_Contig_50387_7'
p2669
(dp2670
F130.0
g4
sF110.0
g3
ssS'dDocent_Contig_8417_93'
p2671
(dp2672
F120.0
g3
sF100.0
g4
ssS'dDocent_Contig_44521_9'
p2673
(dp2674
F130.0
g3
sF110.0
g4
ssS'dDocent_Contig_21573_63'
p2675
(dp2676
F130.0
g4
sF110.0
g3
ssS'dDocent_Contig_77791_33'
p2677
(dp2678
F120.0
g4
sF110.0
g3
ssS'dDocent_Contig_52465_31'
p2679
(dp2680
F130.0
g4
sF110.0
g3
ssS'dDocent_Contig_4099_37'
p2681
(dp2682
F130.0
g3
sF110.0
g4
ssS'dDocent_Contig_576_7'
p2683
(dp2684
F120.0
g3
sF100.0
g4
ssS'dDocent_Contig_24753_31'
p2685
(dp2686
F130.0
g3
sF110.0
g4
ssS'dDocent_Contig_5476_82'
p2687
(dp2688
F100.0
g3
sF110.0
g4
ssS'dDocent_Contig_22299_9'
p2689
(dp2690
F120.0
g3
sF130.0
g4
ssS'dDocent_Contig_14149_35'
p2691
(dp2692
F130.0
g3
sF110.0
g4
ssS'dDocent_Contig_9608_23'
p2693
(dp2694
F120.0
g4
sF100.0
g3
ssS'dDocent_Contig_15055_18'
p2695
(dp2696
F120.0
g4
sF100.0
g3
ssS'dDocent_Contig_10283_101'
p2697
(dp2698
F130.0
g4
sF110.0
g3
ssS'dDocent_Contig_9369_20'
p2699
(dp2700
F130.0
g4
sF110.0
g3
ssS'dDocent_Contig_40750_25'
p2701
(dp2702
F120.0
g4
sF100.0
g3
ssS'dDocent_Contig_6941_42'
p2703
(dp2704
F120.0
g3
sF100.0
g4
ssS'dDocent_Contig_4691_37'
p2705
(dp2706
F130.0
g4
sF110.0
g3
ssS'dDocent_Contig_26961_8'
p2707
(dp2708
F130.0
g4
sF110.0
g3
ssS'dDocent_Contig_3600_115'
p2709
(dp2710
F120.0
g4
sF130.0
g3
ssS'dDocent_Contig_1102_70'
p2711
(dp2712
F120.0
g3
sF100.0
g4
ssS'dDocent_Contig_42730_12'
p2713
(dp2714
F120.0
g3
sF110.0
g4
ssS'dDocent_Contig_266_20'
p2715
(dp2716
F130.0
g3
sF110.0
g4
ssS'dDocent_Contig_1121_55'
p2717
(dp2718
F130.0
g3
sF110.0
g4
ssS'dDocent_Contig_5181_35'
p2719
(dp2720
F130.0
g4
sF100.0
g3
ssS'dDocent_Contig_9636_24'
p2721
(dp2722
F130.0
g4
sF110.0
g3
ssS'dDocent_Contig_19479_71'
p2723
(dp2724
F120.0
g3
sF110.0
g4
ssS'dDocent_Contig_10191_24'
p2725
(dp2726
F120.0
g4
sF100.0
g3
ssS'dDocent_Contig_28625_38'
p2727
(dp2728
F130.0
g4
sF110.0
g3
ssS'dDocent_Contig_11100_55'
p2729
(dp2730
F120.0
g4
sF100.0
g3
ssS'dDocent_Contig_28052_150'
p2731
(dp2732
F100.0
g3
sF110.0
g4
ssS'dDocent_Contig_71800_8'
p2733
(dp2734
F120.0
g4
sF100.0
g3
ssS'dDocent_Contig_15470_24'
p2735
(dp2736
F130.0
g3
sF110.0
g4
ssS'dDocent_Contig_70178_52'
p2737
(dp2738
F130.0
g4
sF100.0
g3
ssS'dDocent_Contig_47046_15'
p2739
(dp2740
F120.0
g3
sF110.0
g4
ssS'dDocent_Contig_15508_47'
p2741
(dp2742
F130.0
g3
sF110.0
g4
ssS'dDocent_Contig_9296_26'
p2743
(dp2744
F130.0
g4
sF110.0
g3
ssS'dDocent_Contig_23905_21'
p2745
(dp2746
F120.0
g4
sF100.0
g3
ssS'dDocent_Contig_36007_77'
p2747
(dp2748
F120.0
g3
sF100.0
g4
ssS'dDocent_Contig_44958_12'
p2749
(dp2750
F130.0
g3
sF110.0
g4
ssS'dDocent_Contig_32732_47'
p2751
(dp2752
F100.0
g4
sF110.0
g3
ssS'dDocent_Contig_42882_24'
p2753
(dp2754
F130.0
g4
sF110.0
g3
ssS'dDocent_Contig_12820_44'
p2755
(dp2756
F130.0
g4
sF110.0
g3
ssS'dDocent_Contig_89576_43'
p2757
(dp2758
F120.0
g4
sF100.0
g3
ssS'dDocent_Contig_16735_66'
p2759
(dp2760
F120.0
g3
sF100.0
g4
ssS'dDocent_Contig_73316_61'
p2761
(dp2762
F130.0
g4
sF110.0
g3
ssS'dDocent_Contig_27966_13'
p2763
(dp2764
F130.0
g3
sF110.0
g4
ssS'dDocent_Contig_1969_34'
p2765
(dp2766
F130.0
g3
sF100.0
g4
ssS'dDocent_Contig_17180_102'
p2767
(dp2768
F120.0
g3
sF110.0
g4
ssS'dDocent_Contig_1528_62'
p2769
(dp2770
F100.0
g4
sF110.0
g3
ssS'dDocent_Contig_26145_9'
p2771
(dp2772
F120.0
g3
sF130.0
g4
ssS'dDocent_Contig_40381_52'
p2773
(dp2774
F130.0
g3
sF110.0
g4
ssS'dDocent_Contig_81141_102'
p2775
(dp2776
F130.0
g4
sF110.0
g3
ssS'dDocent_Contig_24498_10'
p2777
(dp2778
F120.0
g4
sF130.0
g3
ssS'dDocent_Contig_14046_28'
p2779
(dp2780
F120.0
g4
sF130.0
g3
ssS'dDocent_Contig_35962_10'
p2781
(dp2782
F130.0
g4
sF110.0
g3
ssS'dDocent_Contig_14385_115'
p2783
(dp2784
F130.0
g3
sF110.0
g4
ssS'dDocent_Contig_30048_38'
p2785
(dp2786
F100.0
g3
sF110.0
g4
ssS'dDocent_Contig_70304_18'
p2787
(dp2788
F120.0
g4
sF100.0
g3
ssS'dDocent_Contig_79455_47'
p2789
(dp2790
F120.0
g3
sF130.0
g4
ssS'dDocent_Contig_67313_36'
p2791
(dp2792
F130.0
g3
sF110.0
g4
ssS'dDocent_Contig_26895_19'
p2793
(dp2794
F120.0
g3
sF110.0
g4
ssS'dDocent_Contig_53836_65'
p2795
(dp2796
F120.0
g3
sF130.0
g4
ssS'dDocent_Contig_45471_26'
p2797
(dp2798
F130.0
g4
sF110.0
g3
ssS'dDocent_Contig_31943_20'
p2799
(dp2800
F130.0
g3
sF110.0
g4
ssS'dDocent_Contig_57352_45'
p2801
(dp2802
F120.0
g4
sF100.0
g3
ssS'dDocent_Contig_55257_15'
p2803
(dp2804
F100.0
g4
sF110.0
g3
ssS'dDocent_Contig_21542_33'
p2805
(dp2806
F100.0
g4
sF110.0
g3
ssS'dDocent_Contig_33657_8'
p2807
(dp2808
F130.0
g3
sF110.0
g4
ssS'dDocent_Contig_77326_18'
p2809
(dp2810
F130.0
g4
sF110.0
g3
ssS'dDocent_Contig_12047_16'
p2811
(dp2812
F130.0
g4
sF110.0
g3
ssS'dDocent_Contig_3417_37'
p2813
(dp2814
F120.0
g4
sF130.0
g3
ssS'dDocent_Contig_78076_7'
p2815
(dp2816
F120.0
g3
sF100.0
g4
ssS'dDocent_Contig_16580_69'
p2817
(dp2818
F120.0
g4
sF110.0
g3
ssS'dDocent_Contig_11913_13'
p2819
(dp2820
F120.0
g3
sF130.0
g4
ssS'dDocent_Contig_57534_8'
p2821
(dp2822
F120.0
g4
sF100.0
g3
ssS'dDocent_Contig_7085_70'
p2823
(dp2824
F100.0
g3
sF110.0
g4
ssS'dDocent_Contig_30038_68'
p2825
(dp2826
F130.0
g3
sF110.0
g4
ssS'dDocent_Contig_34792_26'
p2827
(dp2828
F130.0
g3
sF100.0
g4
ssS'dDocent_Contig_49751_19'
p2829
(dp2830
F120.0
g4
sF100.0
g3
ssS'dDocent_Contig_44314_59'
p2831
(dp2832
F130.0
g3
sF110.0
g4
ssS'dDocent_Contig_11859_20'
p2833
(dp2834
F130.0
g3
sF110.0
g4
ssS'dDocent_Contig_76417_40'
p2835
(dp2836
F120.0
g3
sF100.0
g4
ssS'dDocent_Contig_21966_60'
p2837
(dp2838
F100.0
g4
sF110.0
g3
ssS'dDocent_Contig_81_43'
p2839
(dp2840
F100.0
g4
sF110.0
g3
ssS'dDocent_Contig_23163_75'
p2841
(dp2842
F120.0
g3
sF100.0
g4
ssS'dDocent_Contig_18422_14'
p2843
(dp2844
F130.0
g4
sF110.0
g3
ssS'dDocent_Contig_10172_28'
p2845
(dp2846
F130.0
g3
sF110.0
g4
ssS'dDocent_Contig_67991_64'
p2847
(dp2848
F100.0
g4
sF110.0
g3
ssS'dDocent_Contig_57101_14'
p2849
(dp2850
F130.0
g3
sF110.0
g4
ssS'dDocent_Contig_20810_37'
p2851
(dp2852
F100.0
g3
sF110.0
g4
ssS'dDocent_Contig_8266_45'
p2853
(dp2854
F120.0
g3
sF130.0
g4
ssS'dDocent_Contig_32157_21'
p2855
(dp2856
F120.0
g3
sF100.0
g4
ssS'dDocent_Contig_42813_76'
p2857
(dp2858
F130.0
g4
sF110.0
g3
ssS'dDocent_Contig_42653_49'
p2859
(dp2860
F130.0
g3
sF110.0
g4
ssS'dDocent_Contig_31369_22'
p2861
(dp2862
F120.0
g4
sF100.0
g3
ssS'dDocent_Contig_2151_12'
p2863
(dp2864
F120.0
g4
sF130.0
g3
ssS'dDocent_Contig_17764_14'
p2865
(dp2866
F120.0
g4
sF100.0
g3
ssS'dDocent_Contig_3911_30'
p2867
(dp2868
F120.0
g4
sF110.0
g3
ssS'dDocent_Contig_5827_95'
p2869
(dp2870
F130.0
g3
sF110.0
g4
ssS'dDocent_Contig_19239_10'
p2871
(dp2872
F100.0
g4
sF110.0
g3
ssS'dDocent_Contig_35907_19'
p2873
(dp2874
F120.0
g4
sF100.0
g3
ssS'dDocent_Contig_2516_73'
p2875
(dp2876
F120.0
g4
sF100.0
g3
ssS'dDocent_Contig_13772_29'
p2877
(dp2878
F120.0
g3
sF110.0
g4
ssS'dDocent_Contig_64840_9'
p2879
(dp2880
F100.0
g4
sF110.0
g3
ssS'dDocent_Contig_6846_25'
p2881
(dp2882
F130.0
g3
sF110.0
g4
ssS'dDocent_Contig_39797_86'
p2883
(dp2884
F130.0
g4
sF110.0
g3
ssS'dDocent_Contig_30810_64'
p2885
(dp2886
F120.0
g3
sF130.0
g4
ssS'dDocent_Contig_10526_28'
p2887
(dp2888
F130.0
g4
sF110.0
g3
ssS'dDocent_Contig_30286_22'
p2889
(dp2890
F120.0
g4
sF100.0
g3
ssS'dDocent_Contig_50533_24'
p2891
(dp2892
F120.0
g4
sF100.0
g3
ssS'dDocent_Contig_61308_73'
p2893
(dp2894
F130.0
g3
sF100.0
g4
ssS'dDocent_Contig_1744_15'
p2895
(dp2896
F130.0
g4
sF110.0
g3
ssS'dDocent_Contig_2549_17'
p2897
(dp2898
F100.0
g4
sF110.0
g3
ssS'dDocent_Contig_441_37'
p2899
(dp2900
F130.0
g3
sF110.0
g4
ssS'dDocent_Contig_82596_95'
p2901
(dp2902
F120.0
g4
sF100.0
g3
ssS'dDocent_Contig_36492_25'
p2903
(dp2904
F120.0
g4
sF130.0
g3
ssS'dDocent_Contig_26348_16'
p2905
(dp2906
F120.0
g3
sF110.0
g4
ssS'dDocent_Contig_39476_8'
p2907
(dp2908
F120.0
g3
sF100.0
g4
ssS'dDocent_Contig_53596_46'
p2909
(dp2910
F130.0
g4
sF110.0
g3
ssS'dDocent_Contig_8691_11'
p2911
(dp2912
F120.0
g4
sF100.0
g3
ssS'dDocent_Contig_1675_93'
p2913
(dp2914
F120.0
g4
sF100.0
g3
ssS'dDocent_Contig_3481_12'
p2915
(dp2916
F130.0
g4
sF110.0
g3
ssS'dDocent_Contig_36421_17'
p2917
(dp2918
F120.0
g3
sF100.0
g4
ssS'dDocent_Contig_4992_64'
p2919
(dp2920
F130.0
g3
sF110.0
g4
ssS'dDocent_Contig_84285_96'
p2921
(dp2922
F130.0
g4
sF110.0
g3
ssS'dDocent_Contig_483_101'
p2923
(dp2924
F120.0
g4
sF100.0
g3
ssS'dDocent_Contig_55531_31'
p2925
(dp2926
F120.0
g3
sF100.0
g4
ssS'dDocent_Contig_6385_8'
p2927
(dp2928
F120.0
g3
sF100.0
g4
ssS'dDocent_Contig_12399_97'
p2929
(dp2930
F130.0
g3
sF100.0
g4
ssS'dDocent_Contig_44174_34'
p2931
(dp2932
F120.0
g3
sF100.0
g4
ssS'dDocent_Contig_5285_50'
p2933
(dp2934
F120.0
g3
sF100.0
g4
ssS'dDocent_Contig_2450_7'
p2935
(dp2936
F130.0
g3
sF110.0
g4
ssS'dDocent_Contig_2787_11'
p2937
(dp2938
F120.0
g4
sF100.0
g3
ssS'dDocent_Contig_8716_84'
p2939
(dp2940
F120.0
g3
sF100.0
g4
ssS'dDocent_Contig_3518_42'
p2941
(dp2942
F120.0
g4
sF100.0
g3
ssS'dDocent_Contig_15631_18'
p2943
(dp2944
F130.0
g3
sF110.0
g4
ssS'dDocent_Contig_7543_32'
p2945
(dp2946
F130.0
g4
sF100.0
g3
ssS'dDocent_Contig_83366_10'
p2947
(dp2948
F130.0
g3
sF110.0
g4
ssS'dDocent_Contig_38469_79'
p2949
(dp2950
F120.0
g4
sF100.0
g3
ssS'dDocent_Contig_11182_7'
p2951
(dp2952
F130.0
g3
sF110.0
g4
ssS'dDocent_Contig_12609_15'
p2953
(dp2954
F130.0
g4
sF100.0
g3
ssS'dDocent_Contig_60256_14'
p2955
(dp2956
F130.0
g3
sF110.0
g4
ssS'dDocent_Contig_18199_42'
p2957
(dp2958
F130.0
g3
sF110.0
g4
ssS'dDocent_Contig_39750_20'
p2959
(dp2960
F120.0
g4
sF130.0
g3
ssS'dDocent_Contig_32386_19'
p2961
(dp2962
F100.0
g4
sF110.0
g3
ssS'dDocent_Contig_8697_21'
p2963
(dp2964
F130.0
g3
sF100.0
g4
ssS'dDocent_Contig_21997_39'
p2965
(dp2966
F120.0
g4
sF100.0
g3
ssS'dDocent_Contig_14281_121'
p2967
(dp2968
F130.0
g3
sF110.0
g4
ssS'dDocent_Contig_59985_110'
p2969
(dp2970
F130.0
g4
sF100.0
g3
ssS'dDocent_Contig_18152_26'
p2971
(dp2972
F130.0
g4
sF110.0
g3
ssS'dDocent_Contig_48994_38'
p2973
(dp2974
F130.0
g3
sF110.0
g4
ssS'dDocent_Contig_61272_82'
p2975
(dp2976
F130.0
g3
sF110.0
g4
ssS'dDocent_Contig_26493_22'
p2977
(dp2978
F130.0
g4
sF110.0
g3
ssS'dDocent_Contig_34993_26'
p2979
(dp2980
F130.0
g3
sF100.0
g4
ssS'dDocent_Contig_7210_7'
p2981
(dp2982
F120.0
g3
sF100.0
g4
ssS'dDocent_Contig_25691_23'
p2983
(dp2984
F120.0
g3
sF100.0
g4
ss.